(lp0
ccopy_reg
_reconstructor
p1
(cgeometry_msgs.msg._Point32
Point32
p2
c__builtin__
object
p3
Ntp4
Rp5
(lp6
F-1.5138779878616333
aF-2.131901741027832
aF0.25200000405311584
abag1
(g2
g3
Ntp7
Rp8
(lp9
F-1.5032799243927002
aF-2.1381490230560303
aF0.25200000405311584
abag1
(g2
g3
Ntp10
Rp11
(lp12
F-1.4939335584640503
aF-2.145887851715088
aF0.25200000405311584
abag1
(g2
g3
Ntp13
Rp14
(lp15
F-1.4832881689071655
aF-2.1520371437072754
aF0.25200000405311584
abag1
(g2
g3
Ntp16
Rp17
(lp18
F-1.4682174921035767
aF-2.1526942253112793
aF0.25200000405311584
abag1
(g2
g3
Ntp19
Rp20
(lp21
F-1.4481674432754517
aF-2.147022008895874
aF0.25200000405311584
abag1
(g2
g3
Ntp22
Rp23
(lp24
F-1.4387829303741455
aF-2.154520273208618
aF0.25200000405311584
abag1
(g2
g3
Ntp25
Rp26
(lp27
F-1.4275084733963013
aF-2.159621477127075
aF0.25200000405311584
abag1
(g2
g3
Ntp28
Rp29
(lp30
F-1.412528157234192
aF-2.1599373817443848
aF0.25200000405311584
abag1
(g2
g3
Ntp31
Rp32
(lp33
F-1.4030876159667969
aF-2.1672799587249756
aF0.25200000405311584
abag1
(g2
g3
Ntp34
Rp35
(lp36
F-1.3850924968719482
aF-2.1634745597839355
aF0.25200000405311584
abag1
(g2
g3
Ntp37
Rp38
(lp39
F-1.3738209009170532
aF-2.168309450149536
aF0.25200000405311584
abag1
(g2
g3
Ntp40
Rp41
(lp42
F-1.3631404638290405
aF-2.1738858222961426
aF0.25200000405311584
abag1
(g2
g3
Ntp43
Rp44
(lp45
F-1.3518446683883667
aF-2.1786091327667236
aF0.25200000405311584
abag1
(g2
g3
Ntp46
Rp47
(lp48
F-1.3393491506576538
aF-2.1816675662994385
aF0.25200000405311584
abag1
(g2
g3
Ntp49
Rp50
(lp51
F-1.3298144340515137
aF-2.188690662384033
aF0.25200000405311584
abag1
(g2
g3
Ntp52
Rp53
(lp54
F-1.3202491998672485
aF-2.195672035217285
aF0.25200000405311584
abag1
(g2
g3
Ntp55
Rp56
(lp57
F-1.303058385848999
aF-2.192061185836792
aF0.25200000405311584
abag1
(g2
g3
Ntp58
Rp59
(lp60
F-1.2888331413269043
aF-2.192413091659546
aF0.25200000405311584
abag1
(g2
g3
Ntp61
Rp62
(lp63
F-1.278674840927124
aF-2.198399066925049
aF0.25200000405311584
abag1
(g2
g3
Ntp64
Rp65
(lp66
F-1.2633320093154907
aF-2.1969656944274902
aF0.25200000405311584
abag1
(g2
g3
Ntp67
Rp68
(lp69
F-1.2531614303588867
aF-2.2028353214263916
aF0.25200000405311584
abag1
(g2
g3
Ntp70
Rp71
(lp72
F-1.2373048067092896
aF-2.2004170417785645
aF0.25200000405311584
abag1
(g2
g3
Ntp73
Rp74
(lp75
F-1.227689266204834
aF-2.2069947719573975
aF0.25200000405311584
abag1
(g2
g3
Ntp76
Rp77
(lp78
F-1.2141308784484863
aF-2.2077271938323975
aF0.25200000405311584
abag1
(g2
g3
Ntp79
Rp80
(lp81
F-1.2017056941986084
aF-2.2100462913513184
aF0.25200000405311584
abag1
(g2
g3
Ntp82
Rp83
(lp84
F-1.191496729850769
aF-2.21563458442688
aF0.25200000405311584
abag1
(g2
g3
Ntp85
Rp86
(lp87
F-1.1768805980682373
aF-2.2144856452941895
aF0.25200000405311584
abag1
(g2
g3
Ntp88
Rp89
(lp90
F-1.1666595935821533
aF-2.219960927963257
aF0.25200000405311584
abag1
(g2
g3
Ntp91
Rp92
(lp93
F-1.148844838142395
aF-2.2136147022247314
aF0.25200000405311584
abag1
(g2
g3
Ntp94
Rp95
(lp96
F-1.1364861726760864
aF-2.2155892848968506
aF0.25200000405311584
abag1
(g2
g3
Ntp97
Rp98
(lp99
F-1.1268054246902466
aF-2.221727132797241
aF0.25200000405311584
abag1
(g2
g3
Ntp100
Rp101
(lp102
F-1.117098093032837
aF-2.2278223037719727
aF0.25200000405311584
abag1
(g2
g3
Ntp103
Rp104
(lp105
F-1.1073640584945679
aF-2.233875274658203
aF0.25200000405311584
abag1
(g2
g3
Ntp106
Rp107
(lp108
F-1.0976037979125977
aF-2.2398858070373535
aF0.25200000405311584
abag1
(g2
g3
Ntp109
Rp110
(lp111
F-1.0847047567367554
aF-2.2407240867614746
aF0.25200000405311584
abag1
(g2
g3
Ntp112
Rp113
(lp114
F-1.0707945823669434
aF-2.2397780418395996
aF0.25200000405311584
abag1
(g2
g3
Ntp115
Rp116
(lp117
F-1.0610088109970093
aF-2.245628833770752
aF0.25200000405311584
abag1
(g2
g3
Ntp118
Rp119
(lp120
F-1.0506902933120728
aF-2.250575304031372
aF0.25200000405311584
abag1
(g2
g3
Ntp121
Rp122
(lp123
F-1.034812331199646
aF-2.245972156524658
aF0.25200000405311584
abag1
(g2
g3
Ntp124
Rp125
(lp126
F-1.0245000123977661
aF-2.2507998943328857
aF0.25200000405311584
abag1
(g2
g3
Ntp127
Rp128
(lp129
F-1.014170527458191
aF-2.255580425262451
aF0.25200000405311584
abag1
(g2
g3
Ntp130
Rp131
(lp132
F-1.0033316612243652
aF-2.2594432830810547
aF0.25200000405311584
abag1
(g2
g3
Ntp133
Rp134
(lp135
F-0.9944380521774292
aF-2.266744613647461
aF0.25200000405311584
abag1
(g2
g3
Ntp136
Rp137
(lp138
F-0.9821113348007202
aF-2.2678887844085693
aF0.25200000405311584
abag1
(g2
g3
Ntp139
Rp140
(lp141
F-0.9707609415054321
aF-2.2707221508026123
aF0.25200000405311584
abag1
(g2
g3
Ntp142
Rp143
(lp144
F-0.960841178894043
aF-2.2761361598968506
aF0.25200000405311584
abag1
(g2
g3
Ntp145
Rp146
(lp147
F-0.9508979320526123
aF-2.2815070152282715
aF0.25200000405311584
abag1
(g2
g3
Ntp148
Rp149
(lp150
F-0.9338893890380859
aF-2.273590087890625
aF0.25200000405311584
abag1
(g2
g3
Ntp151
Rp152
(lp153
F-0.9220950603485107
aF-2.275303363800049
aF0.25200000405311584
abag1
(g2
g3
Ntp154
Rp155
(lp156
F-0.9098470211029053
aF-2.2760696411132812
aF0.25200000405311584
abag1
(g2
g3
Ntp157
Rp158
(lp159
F-0.8999044895172119
aF-2.2812180519104004
aF0.25200000405311584
abag1
(g2
g3
Ntp160
Rp161
(lp162
F-0.8899396657943726
aF-2.286322593688965
aF0.25200000405311584
abag1
(g2
g3
Ntp163
Rp164
(lp165
F-0.8799526691436768
aF-2.291383981704712
aF0.25200000405311584
abag1
(g2
g3
Ntp166
Rp167
(lp168
F-0.8699436187744141
aF-2.2964015007019043
aF0.25200000405311584
abag1
(g2
g3
Ntp169
Rp170
(lp171
F-0.8607975244522095
aF-2.3031692504882812
aF0.25200000405311584
abag1
(g2
g3
Ntp172
Rp173
(lp174
F-0.8472301959991455
aF-2.300912618637085
aF0.25200000405311584
abag1
(g2
g3
Ntp175
Rp176
(lp177
F-0.8354421854019165
aF-2.302184581756592
aF0.25200000405311584
abag1
(g2
g3
Ntp178
Rp179
(lp180
F-0.8253864049911499
aF-2.3070080280303955
aF0.25200000405311584
abag1
(g2
g3
Ntp181
Rp182
(lp183
F-0.8174426555633545
aF-2.316309690475464
aF0.25200000405311584
abag1
(g2
g3
Ntp184
Rp185
(lp186
F-0.8052123785018921
aF-2.3165225982666016
aF0.25200000405311584
abag1
(g2
g3
Ntp187
Rp188
(lp189
F-0.79509437084198
aF-2.321213960647583
aF0.25200000405311584
abag1
(g2
g3
Ntp190
Rp191
(lp192
F-0.787029504776001
aF-2.330410957336426
aF0.25200000405311584
abag1
(g2
g3
Ntp193
Rp194
(lp195
F-0.7768510580062866
aF-2.3350226879119873
aF0.25200000405311584
abag1
(g2
g3
Ntp196
Rp197
(lp198
F-0.7719401121139526
aF-2.351465940475464
aF0.25200000405311584
abag1
(g2
g3
Ntp199
Rp200
(lp201
F-0.7656975984573364
aF-2.3651649951934814
aF0.25200000405311584
abag1
(g2
g3
Ntp202
Rp203
(lp204
F-0.7565639019012451
aF-2.372434377670288
aF0.25200000405311584
abag1
(g2
g3
Ntp205
Rp206
(lp207
F-0.7509393692016602
aF-2.3879382610321045
aF0.25200000405311584
abag1
(g2
g3
Ntp208
Rp209
(lp210
F-0.7459805011749268
aF-2.4052791595458984
aF0.25200000405311584
abag1
(g2
g3
Ntp211
Rp212
(lp213
F-0.7370227575302124
aF-2.4133999347686768
aF0.25200000405311584
abag1
(g2
g3
Ntp214
Rp215
(lp216
F-0.7306921482086182
aF-2.427955389022827
aF0.25200000405311584
abag1
(g2
g3
Ntp217
Rp218
(lp219
F-0.7231178283691406
aF-2.4397246837615967
aF0.25200000405311584
abag1
(g2
g3
Ntp220
Rp221
(lp222
F-0.7203298211097717
aF-2.4635274410247803
aF0.25200000405311584
abag1
(g2
g3
Ntp223
Rp224
(lp225
F-0.7136473059654236
aF-2.4780638217926025
aF0.25200000405311584
abag1
(g2
g3
Ntp226
Rp227
(lp228
F-0.7079563736915588
aF-2.49537992477417
aF0.25200000405311584
abag1
(g2
g3
Ntp229
Rp230
(lp231
F-0.6974213719367981
aF-2.500577211380005
aF0.25200000405311584
abag1
(g2
g3
Ntp232
Rp233
(lp234
F-0.6897265911102295
aF-2.5131983757019043
aF0.25200000405311584
abag1
(g2
g3
Ntp235
Rp236
(lp237
F-0.6791058778762817
aF-2.5183191299438477
aF0.25200000405311584
abag1
(g2
g3
Ntp238
Rp239
(lp240
F-0.6807160377502441
aF-2.556178569793701
aF0.25200000405311584
abag1
(g2
g3
Ntp241
Rp242
(lp243
F-0.6698996424674988
aF-2.561262369155884
aF0.25200000405311584
abag1
(g2
g3
Ntp244
Rp245
(lp246
F-0.6604251265525818
aF-2.570059299468994
aF0.25200000405311584
abag1
(g2
g3
Ntp247
Rp248
(lp249
F-0.6502160429954529
aF-2.576939821243286
aF0.25200000405311584
abag1
(g2
g3
Ntp250
Rp251
(lp252
F-0.6463069915771484
aF-2.6016905307769775
aF0.25200000405311584
abag1
(g2
g3
Ntp253
Rp254
(lp255
F-0.6379135251045227
aF-2.614182472229004
aF0.25200000405311584
abag1
(g2
g3
Ntp256
Rp257
(lp258
F-0.635288655757904
aF-2.643669843673706
aF0.25200000405311584
abag1
(g2
g3
Ntp259
Rp260
(lp261
F-0.6237448453903198
aF-2.6476166248321533
aF0.25200000405311584
abag1
(g2
g3
Ntp262
Rp263
(lp264
F-0.6125012040138245
aF-2.652461290359497
aF0.25200000405311584
abag1
(g2
g3
Ntp265
Rp266
(lp267
F-0.6018587350845337
aF-2.6591575145721436
aF0.25200000405311584
abag1
(g2
g3
Ntp268
Rp269
(lp270
F-0.6001362204551697
aF-2.693392038345337
aF0.25200000405311584
abag1
(g2
g3
Ntp271
Rp272
(lp273
F-0.5920342206954956
aF-2.708613634109497
aF0.25200000405311584
abag1
(g2
g3
Ntp274
Rp275
(lp276
F-0.5829136967658997
aF-2.720954418182373
aF0.25200000405311584
abag1
(g2
g3
Ntp277
Rp278
(lp279
F-0.5728124380111694
aF-2.7304019927978516
aF0.25200000405311584
abag1
(g2
g3
Ntp280
Rp281
(lp282
F-0.5638145208358765
aF-2.743638277053833
aF0.25200000405311584
abag1
(g2
g3
Ntp283
Rp284
(lp285
F-0.557022750377655
aF-2.7645084857940674
aF0.25200000405311584
abag1
(g2
g3
Ntp286
Rp287
(lp288
F-0.5489286184310913
aF-2.781536102294922
aF0.25200000405311584
abag1
(g2
g3
Ntp289
Rp290
(lp291
F-0.5440596342086792
aF-2.810065984725952
aF0.25200000405311584
abag1
(g2
g3
Ntp292
Rp293
(lp294
F-0.5334444642066956
aF-2.819380521774292
aF0.25200000405311584
abag1
(g2
g3
Ntp295
Rp296
(lp297
F-0.5252065062522888
aF-2.837317943572998
aF0.25200000405311584
abag1
(g2
g3
Ntp298
Rp299
(lp300
F-0.5136205554008484
aF-2.8436734676361084
aF0.25200000405311584
abag1
(g2
g3
Ntp301
Rp302
(lp303
F-0.5027834177017212
aF-2.8528761863708496
aF0.25200000405311584
abag1
(g2
g3
Ntp304
Rp305
(lp306
F-0.49886903166770935
aF-2.888118267059326
aF0.25200000405311584
abag1
(g2
g3
Ntp307
Rp308
(lp309
F-0.4898243248462677
aF-2.905005931854248
aF0.25200000405311584
abag1
(g2
g3
Ntp310
Rp311
(lp312
F-0.48189881443977356
aF-2.926710367202759
aF0.25200000405311584
abag1
(g2
g3
Ntp313
Rp314
(lp315
F-0.46961382031440735
aF-2.9319236278533936
aF0.25200000405311584
abag1
(g2
g3
Ntp316
Rp317
(lp318
F-0.4616522490978241
aF-2.9545505046844482
aF0.25200000405311584
abag1
(g2
g3
Ntp319
Rp320
(lp321
F-0.4504174292087555
aF-2.96453595161438
aF0.25200000405311584
abag1
(g2
g3
Ntp322
Rp323
(lp324
F-0.44121047854423523
aF-2.9832310676574707
aF0.25200000405311584
abag1
(g2
g3
Ntp325
Rp326
(lp327
F-0.4330000579357147
aF-3.0067684650421143
aF0.25200000405311584
abag1
(g2
g3
Ntp328
Rp329
(lp330
F-0.42009881138801575
aF-3.010803461074829
aF0.25200000405311584
abag1
(g2
g3
Ntp331
Rp332
(lp333
F-0.4126932919025421
aF-3.0391666889190674
aF0.25200000405311584
abag1
(g2
g3
Ntp334
Rp335
(lp336
F-0.4024560749530792
aF-3.0558066368103027
aF0.25200000405311584
abag1
(g2
g3
Ntp337
Rp338
(lp339
F-0.38911619782447815
aF-3.0587334632873535
aF0.25200000405311584
abag1
(g2
g3
Ntp340
Rp341
(lp342
F-0.37805071473121643
aF-3.072361707687378
aF0.25200000405311584
abag1
(g2
g3
Ntp343
Rp344
(lp345
F-0.3697298467159271
aF-3.0996577739715576
aF0.25200000405311584
abag1
(g2
g3
Ntp346
Rp347
(lp348
F-0.3605850636959076
aF-3.123999834060669
aF0.25200000405311584
abag1
(g2
g3
Ntp349
Rp350
(lp351
F-0.3518252670764923
aF-3.1512632369995117
aF0.25200000405311584
abag1
(g2
g3
Ntp352
Rp353
(lp354
F-0.34035906195640564
aF-3.16574764251709
aF0.25200000405311584
abag1
(g2
g3
Ntp355
Rp356
(lp357
F-0.3278457820415497
aF-3.1752798557281494
aF0.25200000405311584
abag1
(g2
g3
Ntp358
Rp359
(lp360
F-0.31890568137168884
aF-3.204427719116211
aF0.25200000405311584
abag1
(g2
g3
Ntp361
Rp362
(lp363
F-0.3061636984348297
aF-3.213876962661743
aF0.25200000405311584
abag1
(g2
g3
Ntp364
Rp365
(lp366
F-0.29699715971946716
aF-3.2439565658569336
aF0.25200000405311584
abag1
(g2
g3
Ntp367
Rp368
(lp369
F-0.28673234581947327
aF-3.269089460372925
aF0.25200000405311584
abag1
(g2
g3
Ntp370
Rp371
(lp372
F-0.27543386816978455
aF-3.289262533187866
aF0.25200000405311584
abag1
(g2
g3
Ntp373
Rp374
(lp375
F-0.2652558386325836
aF-3.3172948360443115
aF0.25200000405311584
abag1
(g2
g3
Ntp376
Rp377
(lp378
F-0.2514020502567291
aF-3.32357120513916
aF0.25200000405311584
abag1
(g2
g3
Ntp379
Rp380
(lp381
F-0.24085047841072083
aF-3.351533889770508
aF0.25200000405311584
abag1
(g2
g3
Ntp382
Rp383
(lp384
F-0.22814330458641052
aF-3.366610050201416
aF0.25200000405311584
abag1
(g2
g3
Ntp385
Rp386
(lp387
F-0.21344897150993347
aF-3.3687734603881836
aF0.25200000405311584
abag1
(g2
g3
Ntp388
Rp389
(lp390
F-0.20459061861038208
aF-3.412463903427124
aF0.25200000405311584
abag1
(g2
g3
Ntp391
Rp392
(lp393
F-0.19293281435966492
aF-3.4383046627044678
aF0.25200000405311584
abag1
(g2
g3
Ntp394
Rp395
(lp396
F-0.18040597438812256
aF-3.459151268005371
aF0.25200000405311584
abag1
(g2
g3
Ntp397
Rp398
(lp399
F-0.16770607233047485
aF-3.4799532890319824
aF0.25200000405311584
abag1
(g2
g3
Ntp400
Rp401
(lp402
F-0.15666130185127258
aF-3.5155985355377197
aF0.25200000405311584
abag1
(g2
g3
Ntp403
Rp404
(lp405
F-0.14178770780563354
aF-3.52142071723938
aF0.25200000405311584
abag1
(g2
g3
Ntp406
Rp407
(lp408
F-0.12913554906845093
aF-3.547051429748535
aF0.25200000405311584
abag1
(g2
g3
Ntp409
Rp410
(lp411
F-0.11496124416589737
aF-3.5607097148895264
aF0.25200000405311584
abag1
(g2
g3
Ntp412
Rp413
(lp414
F-0.10161615163087845
aF-3.5832622051239014
aF0.25200000405311584
abag1
(g2
g3
Ntp415
Rp416
(lp417
F-0.08968467265367508
aF-3.62168550491333
aF0.25200000405311584
abag1
(g2
g3
Ntp418
Rp419
(lp420
F-0.07550803571939468
aF-3.6401638984680176
aF0.25200000405311584
abag1
(g2
g3
Ntp421
Rp422
(lp423
F-0.060719527304172516
aF-3.6536080837249756
aF0.25200000405311584
abag1
(g2
g3
Ntp424
Rp425
(lp426
F-0.047389186918735504
aF-3.6849241256713867
aF0.25200000405311584
abag1
(g2
g3
Ntp427
Rp428
(lp429
F-0.034288741648197174
aF-3.7221720218658447
aF0.25200000405311584
abag1
(g2
g3
Ntp430
Rp431
(lp432
F-0.020320123061537743
aF-3.752396821975708
aF0.25200000405311584
abag1
(g2
g3
Ntp433
Rp434
(lp435
F-0.00550073990598321
aF-3.7745919227600098
aF0.25200000405311584
abag1
(g2
g3
Ntp436
Rp437
(lp438
F0.008390659466385841
aF-3.812689781188965
aF0.25200000405311584
abag1
(g2
g3
Ntp439
Rp440
(lp441
F0.022936219349503517
aF-3.8457484245300293
aF0.25200000405311584
abag1
(g2
g3
Ntp442
Rp443
(lp444
F0.03971881419420242
aF-3.846811532974243
aF0.25200000405311584
abag1
(g2
g3
Ntp445
Rp446
(lp447
F0.05650588124990463
aF-3.847801685333252
aF0.25200000405311584
abag1
(g2
g3
Ntp448
Rp449
(lp450
F0.07481484860181808
aF-3.8197579383850098
aF0.25200000405311584
abag1
(g2
g3
Ntp451
Rp452
(lp453
F0.09172344952821732
aF-3.815600872039795
aF0.25200000405311584
abag1
(g2
g3
Ntp454
Rp455
(lp456
F0.10902812331914902
aF-3.8013784885406494
aF0.25200000405311584
abag1
(g2
g3
Ntp457
Rp458
(lp459
F0.1266763061285019
aF-3.775087356567383
aF0.25200000405311584
abag1
(g2
g3
Ntp460
Rp461
(lp462
F0.14423148334026337
aF-3.7447173595428467
aF0.25200000405311584
abag1
(g2
g3
Ntp463
Rp464
(lp465
F0.1606331616640091
aF-3.743253231048584
aF0.25200000405311584
abag1
(g2
g3
Ntp466
Rp467
(lp468
F0.1777263581752777
aF-3.714726686477661
aF0.25200000405311584
abag1
(g2
g3
Ntp469
Rp470
(lp471
F0.19445934891700745
aF-3.6911213397979736
aF0.25200000405311584
abag1
(g2
g3
Ntp472
Rp473
(lp474
F0.21061797440052032
aF-3.6884379386901855
aF0.25200000405311584
abag1
(g2
g3
Ntp475
Rp476
(lp477
F0.2267647385597229
aF-3.6846842765808105
aF0.25200000405311584
abag1
(g2
g3
Ntp478
Rp479
(lp480
F0.24311313033103943
aF-3.6538608074188232
aF0.25200000405311584
abag1
(g2
g3
Ntp481
Rp482
(lp483
F0.25905635952949524
aF-3.6539652347564697
aF0.25200000405311584
abag1
(g2
g3
Ntp484
Rp485
(lp486
F0.2749998867511749
aF-3.61899995803833
aF0.25200000405311584
abag1
(g2
g3
Ntp487
Rp488
(lp489
F0.2907034456729889
aF-3.598965644836426
aF0.25200000405311584
abag1
(g2
g3
Ntp490
Rp491
(lp492
F0.3063630759716034
aF-3.5938632488250732
aF0.25200000405311584
abag1
(g2
g3
Ntp493
Rp494
(lp495
F0.321821391582489
aF-3.576693534851074
aF0.25200000405311584
abag1
(g2
g3
Ntp496
Rp497
(lp498
F0.3373049795627594
aF-3.569456100463867
aF0.25200000405311584
abag1
(g2
g3
Ntp499
Rp500
(lp501
F0.3522682189941406
aF-3.5411572456359863
aF0.25200000405311584
abag1
(g2
g3
Ntp502
Rp503
(lp504
F0.3670642375946045
aF-3.5157947540283203
aF0.25200000405311584
abag1
(g2
g3
Ntp505
Rp506
(lp507
F0.3817625343799591
aF-3.4943695068359375
aF0.25200000405311584
abag1
(g2
g3
Ntp508
Rp509
(lp510
F0.39669445157051086
aF-3.4848759174346924
aF0.25200000405311584
abag1
(g2
g3
Ntp511
Rp512
(lp513
F0.4110744297504425
aF-3.4633278846740723
aF0.25200000405311584
abag1
(g2
g3
Ntp514
Rp515
(lp516
F0.4258793592453003
aF-3.4557080268859863
aF0.25200000405311584
abag1
(g2
g3
Ntp517
Rp518
(lp519
F0.4404284954071045
aF-3.4440290927886963
aF0.25200000405311584
abag1
(g2
g3
Ntp520
Rp521
(lp522
F0.45508792996406555
aF-3.436284303665161
aF0.25200000405311584
abag1
(g2
g3
Ntp523
Rp524
(lp525
F0.46849238872528076
aF-3.407510995864868
aF0.25200000405311584
abag1
(g2
g3
Ntp526
Rp527
(lp528
F0.48232072591781616
aF-3.3896656036376953
aF0.25200000405311584
abag1
(g2
g3
Ntp529
Rp530
(lp531
F0.4964548945426941
aF-3.3787503242492676
aF0.25200000405311584
abag1
(g2
g3
Ntp532
Rp533
(lp534
F0.5108465552330017
aF-3.3727641105651855
aF0.25200000405311584
abag1
(g2
g3
Ntp535
Rp536
(lp537
F0.5255606770515442
aF-3.3717029094696045
aF0.25200000405311584
abag1
(g2
g3
Ntp538
Rp539
(lp540
F0.5379163026809692
aF-3.340670108795166
aF0.25200000405311584
abag1
(g2
g3
Ntp541
Rp542
(lp543
F0.5519105195999146
aF-3.332515239715576
aF0.25200000405311584
abag1
(g2
g3
Ntp544
Rp545
(lp546
F0.5649670362472534
aF-3.3143396377563477
aF0.25200000405311584
abag1
(g2
g3
Ntp547
Rp548
(lp549
F0.5771382451057434
aF-3.2881479263305664
aF0.25200000405311584
abag1
(g2
g3
Ntp550
Rp551
(lp552
F0.5909075140953064
aF-3.2808258533477783
aF0.25200000405311584
abag1
(g2
g3
Ntp553
Rp554
(lp555
F0.6052197217941284
aF-3.27941632270813
aF0.25200000405311584
abag1
(g2
g3
Ntp556
Rp557
(lp558
F0.6177487373352051
aF-3.2610373497009277
aF0.25200000405311584
abag1
(g2
g3
Ntp559
Rp560
(lp561
F0.6288172602653503
aF-3.2306830883026123
aF0.25200000405311584
abag1
(g2
g3
Ntp562
Rp563
(lp564
F0.6426839232444763
aF-3.227121353149414
aF0.25200000405311584
abag1
(g2
g3
Ntp565
Rp566
(lp567
F0.6544106006622314
aF-3.20562481880188
aF0.25200000405311584
abag1
(g2
g3
Ntp568
Rp569
(lp570
F0.6660786271095276
aF-3.1850807666778564
aF0.25200000405311584
abag1
(g2
g3
Ntp571
Rp572
(lp573
F0.6797199845314026
aF-3.1813600063323975
aF0.25200000405311584
abag1
(g2
g3
Ntp574
Rp575
(lp576
F0.6933363080024719
aF-3.1775808334350586
aF0.25200000405311584
abag1
(g2
g3
Ntp577
Rp578
(lp579
F0.7069274187088013
aF-3.173743486404419
aF0.25200000405311584
abag1
(g2
g3
Ntp580
Rp581
(lp582
F0.7150652408599854
aF-3.131227493286133
aF0.25200000405311584
abag1
(g2
g3
Ntp583
Rp584
(lp585
F0.7272886633872986
aF-3.1193811893463135
aF0.25200000405311584
abag1
(g2
g3
Ntp586
Rp587
(lp588
F0.7385302186012268
aF-3.1015536785125732
aF0.25200000405311584
abag1
(g2
g3
Ntp589
Rp590
(lp591
F0.7514503598213196
aF-3.095548152923584
aF0.25200000405311584
abag1
(g2
g3
Ntp592
Rp593
(lp594
F0.7647961974143982
aF-3.09245228767395
aF0.25200000405311584
abag1
(g2
g3
Ntp595
Rp596
(lp597
F0.7755522727966309
aF-3.0735068321228027
aF0.25200000405311584
abag1
(g2
g3
Ntp598
Rp599
(lp600
F0.7863173484802246
aF-3.0555129051208496
aF0.25200000405311584
abag1
(g2
g3
Ntp601
Rp602
(lp603
F0.7993059158325195
aF-3.051281452178955
aF0.25200000405311584
abag1
(g2
g3
Ntp604
Rp605
(lp606
F0.8122673630714417
aF-3.0469954013824463
aF0.25200000405311584
abag1
(g2
g3
Ntp607
Rp608
(lp609
F0.8196851015090942
aF-3.01214861869812
aF0.25200000405311584
abag1
(g2
g3
Ntp610
Rp611
(lp612
F0.8319116234779358
aF-3.0048270225524902
aF0.25200000405311584
abag1
(g2
g3
Ntp613
Rp614
(lp615
F0.8425925374031067
aF-2.9895966053009033
aF0.25200000405311584
abag1
(g2
g3
Ntp616
Rp617
(lp618
F0.8546776175498962
aF-2.9821834564208984
aF0.25200000405311584
abag1
(g2
g3
Ntp619
Rp620
(lp621
F0.8669039011001587
aF-2.9757025241851807
aF0.25200000405311584
abag1
(g2
g3
Ntp622
Rp623
(lp624
F0.8770910501480103
aF-2.9593725204467773
aF0.25200000405311584
abag1
(g2
g3
Ntp625
Rp626
(lp627
F0.8873506188392639
aF-2.9439897537231445
aF0.25200000405311584
abag1
(g2
g3
Ntp628
Rp629
(lp630
F0.8985270857810974
aF-2.933464765548706
aF0.25200000405311584
abag1
(g2
g3
Ntp631
Rp632
(lp633
F0.9094111323356628
aF-2.9219210147857666
aF0.25200000405311584
abag1
(g2
g3
Ntp634
Rp635
(lp636
F0.9189077019691467
aF-2.904480457305908
aF0.25200000405311584
abag1
(g2
g3
Ntp637
Rp638
(lp639
F0.9291470646858215
aF-2.8909146785736084
aF0.25200000405311584
abag1
(g2
g3
Ntp640
Rp641
(lp642
F0.9415298700332642
aF-2.8870584964752197
aF0.25200000405311584
abag1
(g2
g3
Ntp643
Rp644
(lp645
F0.9541206359863281
aF-2.884122848510742
aF0.25200000405311584
abag1
(g2
g3
Ntp646
Rp647
(lp648
F0.9666985273361206
aF-2.881132125854492
aF0.25200000405311584
abag1
(g2
g3
Ntp649
Rp650
(lp651
F0.9749848246574402
aF-2.860602378845215
aF0.25200000405311584
abag1
(g2
g3
Ntp652
Rp653
(lp654
F0.9898790717124939
aF-2.8672237396240234
aF0.25200000405311584
abag1
(g2
g3
Ntp655
Rp656
(lp657
F1.0023828744888306
aF-2.86407732963562
aF0.25200000405311584
abag1
(g2
g3
Ntp658
Rp659
(lp660
F1.0148727893829346
aF-2.8608763217926025
aF0.25200000405311584
abag1
(g2
g3
Ntp661
Rp662
(lp663
F1.0314222574234009
aF-2.873093366622925
aF0.25200000405311584
abag1
(g2
g3
Ntp664
Rp665
(lp666
F1.0478335618972778
aF-2.8842546939849854
aF0.25200000405311584
abag1
(g2
g3
Ntp667
Rp668
(lp669
F1.0617262125015259
aF-2.885678768157959
aF0.25200000405311584
abag1
(g2
g3
Ntp670
Rp671
(lp672
F1.0743098258972168
aF-2.882218599319458
aF0.25200000405311584
abag1
(g2
g3
Ntp673
Rp674
(lp675
F1.0868782997131348
aF-2.8787035942077637
aF0.25200000405311584
abag1
(g2
g3
Ntp676
Rp677
(lp678
F0.35002467036247253
aF-0.19292563199996948
aF0.25200000405311584
abag1
(g2
g3
Ntp679
Rp680
(lp681
F0.35086575150489807
aF-0.192596435546875
aF0.25200000405311584
abag1
(g2
g3
Ntp682
Rp683
(lp684
F0.3517053723335266
aF-0.19226358830928802
aF0.25200000405311584
abag1
(g2
g3
Ntp685
Rp686
(lp687
F0.3821234405040741
aF-0.2125290036201477
aF0.25200000405311584
abag1
(g2
g3
Ntp688
Rp689
(lp690
F0.38304972648620605
aF-0.21205955743789673
aF0.25200000405311584
abag1
(g2
g3
Ntp691
Rp692
(lp693
F0.38397398591041565
aF-0.2115860879421234
aF0.25200000405311584
abag1
(g2
g3
Ntp694
Rp695
(lp696
F2.144505023956299
aF-3.205693483352661
aF0.25200000405311584
abag1
(g2
g3
Ntp697
Rp698
(lp699
F2.1584746837615967
aF-3.1975059509277344
aF0.25200000405311584
abag1
(g2
g3
Ntp700
Rp701
(lp702
F2.1693408489227295
aF-3.184100866317749
aF0.25200000405311584
abag1
(g2
g3
Ntp703
Rp704
(lp705
F2.1693098545074463
aF-3.1526613235473633
aF0.25200000405311584
abag1
(g2
g3
Ntp706
Rp707
(lp708
F2.1809728145599365
aF-3.140946388244629
aF0.25200000405311584
abag1
(g2
g3
Ntp709
Rp710
(lp711
F2.1936147212982178
aF-3.130894660949707
aF0.25200000405311584
abag1
(g2
g3
Ntp712
Rp713
(lp714
F2.2046263217926025
aF-3.118241786956787
aF0.25200000405311584
abag1
(g2
g3
Ntp715
Rp716
(lp717
F2.2160942554473877
aF-3.10640025138855
aF0.25200000405311584
abag1
(g2
g3
Ntp718
Rp719
(lp720
F2.218424081802368
aF-3.0801408290863037
aF0.25200000405311584
abag1
(g2
g3
Ntp721
Rp722
(lp723
F2.2318451404571533
aF-3.071631669998169
aF0.25200000405311584
abag1
(g2
g3
Ntp724
Rp725
(lp726
F2.2436060905456543
aF-3.0605409145355225
aF0.25200000405311584
abag1
(g2
g3
Ntp727
Rp728
(lp729
F2.250950336456299
aF-3.042696952819824
aF0.25200000405311584
abag1
(g2
g3
Ntp730
Rp731
(lp732
F2.2598214149475098
aF-3.027355909347534
aF0.25200000405311584
abag1
(g2
g3
Ntp733
Rp734
(lp735
F2.270252227783203
aF-3.0144972801208496
aF0.25200000405311584
abag1
(g2
g3
Ntp736
Rp737
(lp738
F2.2772750854492188
aF-2.9966166019439697
aF0.25200000405311584
abag1
(g2
g3
Ntp739
Rp740
(lp741
F2.2880942821502686
aF-2.9845352172851562
aF0.25200000405311584
abag1
(g2
g3
Ntp742
Rp743
(lp744
F2.289841651916504
aF-2.95919132232666
aF0.25200000405311584
abag1
(g2
g3
Ntp745
Rp746
(lp747
F2.301035165786743
aF-2.947899341583252
aF0.25200000405311584
abag1
(g2
g3
Ntp748
Rp749
(lp750
F2.313878297805786
aF-2.9390311241149902
aF0.25200000405311584
abag1
(g2
g3
Ntp751
Rp752
(lp753
F2.3209471702575684
aF-2.921915292739868
aF0.25200000405311584
abag1
(g2
g3
Ntp754
Rp755
(lp756
F2.3284826278686523
aF-2.9056107997894287
aF0.25200000405311584
abag1
(g2
g3
Ntp757
Rp758
(lp759
F2.3411412239074707
aF-2.896623134613037
aF0.25200000405311584
abag1
(g2
g3
Ntp760
Rp761
(lp762
F2.3514232635498047
aF-2.884333848953247
aF0.25200000405311584
abag1
(g2
g3
Ntp763
Rp764
(lp765
F2.3516452312469482
aF-2.8582570552825928
aF0.25200000405311584
abag1
(g2
g3
Ntp766
Rp767
(lp768
F2.356410026550293
aF-2.8386850357055664
aF0.25200000405311584
abag1
(g2
g3
Ntp769
Rp770
(lp771
F2.366396903991699
aF-2.8263607025146484
aF0.25200000405311584
abag1
(g2
g3
Ntp772
Rp773
(lp774
F2.3781111240386963
aF-2.8164072036743164
aF0.25200000405311584
abag1
(g2
g3
Ntp775
Rp776
(lp777
F2.3837597370147705
aF-2.7984187602996826
aF0.25200000405311584
abag1
(g2
g3
Ntp778
Rp779
(lp780
F2.3953449726104736
aF-2.7883951663970947
aF0.25200000405311584
abag1
(g2
g3
Ntp781
Rp782
(lp783
F2.3995773792266846
aF-2.768803119659424
aF0.25200000405311584
abag1
(g2
g3
Ntp784
Rp785
(lp786
F2.4116382598876953
aF-2.7595067024230957
aF0.25200000405311584
abag1
(g2
g3
Ntp787
Rp788
(lp789
F2.4187333583831787
aF-2.7438535690307617
aF0.25200000405311584
abag1
(g2
g3
Ntp790
Rp791
(lp792
F2.4275896549224854
aF-2.7305469512939453
aF0.25200000405311584
abag1
(g2
g3
Ntp793
Rp794
(lp795
F2.428900718688965
aF-2.707824230194092
aF0.25200000405311584
abag1
(g2
g3
Ntp796
Rp797
(lp798
F2.4313063621520996
aF-2.686702013015747
aF0.25200000405311584
abag1
(g2
g3
Ntp799
Rp800
(lp801
F2.4398622512817383
aF-2.67338228225708
aF0.25200000405311584
abag1
(g2
g3
Ntp802
Rp803
(lp804
F2.450873613357544
aF-2.6631362438201904
aF0.25200000405311584
abag1
(g2
g3
Ntp805
Rp806
(lp807
F2.4605648517608643
aF-2.6513023376464844
aF0.25200000405311584
abag1
(g2
g3
Ntp808
Rp809
(lp810
F2.471472978591919
aF-2.6409716606140137
aF0.25200000405311584
abag1
(g2
g3
Ntp811
Rp812
(lp813
F2.4804043769836426
aF-2.62829852104187
aF0.25200000405311584
abag1
(g2
g3
Ntp814
Rp815
(lp816
F2.482159376144409
aF-2.6072020530700684
aF0.25200000405311584
abag1
(g2
g3
Ntp817
Rp818
(lp819
F2.492215633392334
aF-2.5960261821746826
aF0.25200000405311584
abag1
(g2
g3
Ntp820
Rp821
(lp822
F2.500910758972168
aF-2.583296775817871
aF0.25200000405311584
abag1
(g2
g3
Ntp823
Rp824
(lp825
F2.5069127082824707
aF-2.5675220489501953
aF0.25200000405311584
abag1
(g2
g3
Ntp826
Rp827
(lp828
F2.5141382217407227
aF-2.5532479286193848
aF0.25200000405311584
abag1
(g2
g3
Ntp829
Rp830
(lp831
F2.524595022201538
aF-2.5427048206329346
aF0.25200000405311584
abag1
(g2
g3
Ntp832
Rp833
(lp834
F2.5350024700164795
aF-2.532118797302246
aF0.25200000405311584
abag1
(g2
g3
Ntp835
Rp836
(lp837
F2.5413453578948975
aF-2.517031669616699
aF0.25200000405311584
abag1
(g2
g3
Ntp838
Rp839
(lp840
F2.5516340732574463
aF-2.506378650665283
aF0.25200000405311584
abag1
(g2
g3
Ntp841
Rp842
(lp843
F2.551063299179077
aF-2.4838874340057373
aF0.25200000405311584
abag1
(g2
g3
Ntp844
Rp845
(lp846
F2.559164524078369
aF-2.4709954261779785
aF0.25200000405311584
abag1
(g2
g3
Ntp847
Rp848
(lp849
F2.5699245929718018
aF-2.461005210876465
aF0.25200000405311584
abag1
(g2
g3
Ntp850
Rp851
(lp852
F2.5779001712799072
aF-2.4480550289154053
aF0.25200000405311584
abag1
(g2
g3
Ntp853
Rp854
(lp855
F2.582364559173584
aF-2.43145489692688
aF0.25200000405311584
abag1
(g2
g3
Ntp856
Rp857
(lp858
F2.592951774597168
aF-2.4213640689849854
aF0.25200000405311584
abag1
(g2
g3
Ntp859
Rp860
(lp861
F2.6007163524627686
aF-2.4083497524261475
aF0.25200000405311584
abag1
(g2
g3
Ntp862
Rp863
(lp864
F2.6000378131866455
aF-2.386718273162842
aF0.25200000405311584
abag1
(g2
g3
Ntp865
Rp866
(lp867
F2.6048223972320557
aF-2.370844602584839
aF0.25200000405311584
abag1
(g2
g3
Ntp868
Rp869
(lp870
F2.6116249561309814
aF-2.357105255126953
aF0.25200000405311584
abag1
(g2
g3
Ntp871
Rp872
(lp873
F2.6197659969329834
aF-2.344766139984131
aF0.25200000405311584
abag1
(g2
g3
Ntp874
Rp875
(lp876
F2.629974603652954
aF-2.334512948989868
aF0.25200000405311584
abag1
(g2
g3
Ntp877
Rp878
(lp879
F2.6401383876800537
aF-2.3242151737213135
aF0.25200000405311584
abag1
(g2
g3
Ntp880
Rp881
(lp882
F2.6481082439422607
aF-2.311779737472534
aF0.25200000405311584
abag1
(g2
g3
Ntp883
Rp884
(lp885
F2.6560146808624268
aF-2.299319267272949
aF0.25200000405311584
abag1
(g2
g3
Ntp886
Rp887
(lp888
F2.6573565006256104
aF-2.2806103229522705
aF0.25200000405311584
abag1
(g2
g3
Ntp889
Rp890
(lp891
F2.6643831729888916
aF-2.2674400806427
aF0.25200000405311584
abag1
(g2
g3
Ntp892
Rp893
(lp894
F2.6633284091949463
aF-2.2467150688171387
aF0.25200000405311584
abag1
(g2
g3
Ntp895
Rp896
(lp897
F2.6716461181640625
aF-2.2349085807800293
aF0.25200000405311584
abag1
(g2
g3
Ntp898
Rp899
(lp900
F0.6388710737228394
aF-0.30532413721084595
aF0.25200000405311584
abag1
(g2
g3
Ntp901
Rp902
(lp903
F0.6386621594429016
aF-0.3024546504020691
aF0.25200000405311584
abag1
(g2
g3
Ntp904
Rp905
(lp906
F0.6338053941726685
aF-0.2957763969898224
aF0.25200000405311584
abag1
(g2
g3
Ntp907
Rp908
(lp909
F0.635092556476593
aF-0.29420799016952515
aF0.25200000405311584
abag1
(g2
g3
Ntp910
Rp911
(lp912
F0.6355956792831421
aF-0.29200467467308044
aF0.25200000405311584
abag1
(g2
g3
Ntp913
Rp914
(lp915
F0.633746862411499
aF-0.2879248261451721
aF0.25200000405311584
abag1
(g2
g3
Ntp916
Rp917
(lp918
F0.6349997520446777
aF-0.28635674715042114
aF0.25200000405311584
abag1
(g2
g3
Ntp919
Rp920
(lp921
F0.6276072859764099
aF-0.2779732048511505
aF0.25200000405311584
abag1
(g2
g3
Ntp922
Rp923
(lp924
F0.6288167834281921
aF-0.27643200755119324
aF0.25200000405311584
abag1
(g2
g3
Ntp925
Rp926
(lp927
F0.6308102607727051
aF-0.27549779415130615
aF0.25200000405311584
abag1
(g2
g3
Ntp928
Rp929
(lp930
F0.632008969783783
aF-0.27394264936447144
aF0.25200000405311584
abag1
(g2
g3
Ntp931
Rp932
(lp933
F0.6332008838653564
aF-0.27238228917121887
aF0.25200000405311584
abag1
(g2
g3
Ntp934
Rp935
(lp936
F0.6343859434127808
aF-0.27081677317619324
aF0.25200000405311584
abag1
(g2
g3
Ntp937
Rp938
(lp939
F0.630756676197052
aF-0.26565614342689514
aF0.25200000405311584
abag1
(g2
g3
Ntp940
Rp941
(lp942
F0.6319124102592468
aF-0.2641013264656067
aF0.25200000405311584
abag1
(g2
g3
Ntp943
Rp944
(lp945
F0.633061408996582
aF-0.2625415027141571
aF0.25200000405311584
abag1
(g2
g3
Ntp946
Rp947
(lp948
F0.6366305947303772
aF-0.26274001598358154
aF0.25200000405311584
abag1
(g2
g3
Ntp949
Rp950
(lp951
F0.6442661285400391
aF-0.26583361625671387
aF0.25200000405311584
abag1
(g2
g3
Ntp952
Rp953
(lp954
F0.6462366580963135
aF-0.2648005485534668
aF0.25200000405311584
abag1
(g2
g3
Ntp955
Rp956
(lp957
F0.6473885178565979
aF-0.2631782293319702
aF0.25200000405311584
abag1
(g2
g3
Ntp958
Rp959
(lp960
F0.648533284664154
aF-0.2615508735179901
aF0.25200000405311584
abag1
(g2
g3
Ntp961
Rp962
(lp963
F0.6496709585189819
aF-0.25991854071617126
aF0.25200000405311584
abag1
(g2
g3
Ntp964
Rp965
(lp966
F0.6483291387557983
aF-0.2565820515155792
aF0.25200000405311584
abag1
(g2
g3
Ntp967
Rp968
(lp969
F0.649445116519928
aF-0.2549506425857544
aF0.25200000405311584
abag1
(g2
g3
Ntp970
Rp971
(lp972
F0.6472378373146057
aF-0.2510776221752167
aF0.25200000405311584
abag1
(g2
g3
Ntp973
Rp974
(lp975
F0.6368100643157959
aF-0.21525441110134125
aF0.25200000405311584
abag1
(g2
g3
Ntp976
Rp977
(lp978
F0.6377458572387695
aF-0.2136736661195755
aF0.25200000405311584
abag1
(g2
g3
Ntp979
Rp980
(lp981
F0.6386747360229492
aF-0.21208885312080383
aF0.25200000405311584
abag1
(g2
g3
Ntp982
Rp983
(lp984
F0.639596700668335
aF-0.21050001680850983
aF0.25200000405311584
abag1
(g2
g3
Ntp985
Rp986
(lp987
F0.6590554118156433
aF-0.19780154526233673
aF0.25200000405311584
abag1
(g2
g3
Ntp988
Rp989
(lp990
F0.6599147915840149
aF-0.1961239129304886
aF0.25200000405311584
abag1
(g2
g3
Ntp991
Rp992
(lp993
F0.6679106950759888
aF-0.1980433315038681
aF0.25200000405311584
abag1
(g2
g3
Ntp994
Rp995
(lp996
F0.8547244668006897
aF-0.2052912414073944
aF0.25200000405311584
abag1
(g2
g3
Ntp997
Rp998
(lp999
F0.8461738228797913
aF-0.1994628757238388
aF0.25200000405311584
abag1
(g2
g3
Ntp1000
Rp1001
(lp1002
F0.847038745880127
aF-0.19696876406669617
aF0.25200000405311584
abag1
(g2
g3
Ntp1003
Rp1004
(lp1005
F0.8384234309196472
aF-0.19125650823116302
aF0.25200000405311584
abag1
(g2
g3
Ntp1006
Rp1007
(lp1008
F0.835459291934967
aF-0.18752707540988922
aF0.25200000405311584
abag1
(g2
g3
Ntp1009
Rp1010
(lp1011
F0.8267751336097717
aF-0.18194818496704102
aF0.25200000405311584
abag1
(g2
g3
Ntp1012
Rp1013
(lp1014
F0.8218574523925781
aF-0.17768478393554688
aF0.25200000405311584
abag1
(g2
g3
Ntp1015
Rp1016
(lp1017
F0.8226275444030762
aF-0.17529699206352234
aF0.25200000405311584
abag1
(g2
g3
Ntp1018
Rp1019
(lp1020
F0.8224334716796875
aF-0.17260515689849854
aF0.25200000405311584
abag1
(g2
g3
Ntp1021
Rp1022
(lp1023
F0.8193613290786743
aF-0.16902871429920197
aF0.25200000405311584
abag1
(g2
g3
Ntp1024
Rp1025
(lp1026
F0.8133995532989502
aF-0.1646053045988083
aF0.25200000405311584
abag1
(g2
g3
Ntp1027
Rp1028
(lp1029
F0.8054945468902588
aF-0.15966075658798218
aF0.25200000405311584
abag1
(g2
g3
Ntp1030
Rp1031
(lp1032
F0.8061861395835876
aF-0.1573445200920105
aF0.25200000405311584
abag1
(g2
g3
Ntp1033
Rp1034
(lp1035
F0.8135879039764404
aF-0.1569840908050537
aF0.25200000405311584
abag1
(g2
g3
Ntp1036
Rp1037
(lp1038
F0.8142677545547485
aF-0.154632568359375
aF0.25200000405311584
abag1
(g2
g3
Ntp1039
Rp1040
(lp1041
F0.8149373531341553
aF-0.1522781103849411
aF0.25200000405311584
abag1
(g2
g3
Ntp1042
Rp1043
(lp1044
F0.8165602684020996
aF-0.15018798410892487
aF0.25200000405311584
abag1
(g2
g3
Ntp1045
Rp1046
(lp1047
F0.8201047778129578
aF-0.14861266314983368
aF0.25200000405311584
abag1
(g2
g3
Ntp1048
Rp1049
(lp1050
F0.8178502917289734
aF-0.14545631408691406
aF0.25200000405311584
abag1
(g2
g3
Ntp1051
Rp1052
(lp1053
F0.8155786395072937
aF-0.14232251048088074
aF0.25200000405311584
abag1
(g2
g3
Ntp1054
Rp1055
(lp1056
F0.8239396810531616
aF-0.14196547865867615
aF0.25200000405311584
abag1
(g2
g3
Ntp1057
Rp1058
(lp1059
F0.8245538473129272
aF-0.13956892490386963
aF0.25200000405311584
abag1
(g2
g3
Ntp1060
Rp1061
(lp1062
F0.825157642364502
aF-0.1371697336435318
aF0.25200000405311584
abag1
(g2
g3
Ntp1063
Rp1064
(lp1065
F2.9966793060302734
aF-0.5413757562637329
aF0.25200000405311584
abag1
(g2
g3
Ntp1066
Rp1067
(lp1068
F2.9734933376312256
aF-0.5245340466499329
aF0.25200000405311584
abag1
(g2
g3
Ntp1069
Rp1070
(lp1071
F2.964949131011963
aF-0.510702908039093
aF0.25200000405311584
abag1
(g2
g3
Ntp1072
Rp1073
(lp1074
F2.9671518802642822
aF-0.4989609718322754
aF0.25200000405311584
abag1
(g2
g3
Ntp1075
Rp1076
(lp1077
F2.9693033695220947
aF-0.4872095286846161
aF0.25200000405311584
abag1
(g2
g3
Ntp1078
Rp1079
(lp1080
F3.0117809772491455
aF-0.4825684130191803
aF0.25200000405311584
abag1
(g2
g3
Ntp1081
Rp1082
(lp1083
F3.0355427265167236
aF-0.4743480980396271
aF0.25200000405311584
abag1
(g2
g3
Ntp1084
Rp1085
(lp1086
F3.0425174236297607
aF-0.4631236791610718
aF0.25200000405311584
abag1
(g2
g3
Ntp1087
Rp1088
(lp1089
F3.0445117950439453
aF-0.4510437548160553
aF0.25200000405311584
abag1
(g2
g3
Ntp1090
Rp1091
(lp1092
F3.041515350341797
aF-0.4381730556488037
aF0.25200000405311584
abag1
(g2
g3
Ntp1093
Rp1094
(lp1095
F3.041424036026001
aF-0.42579346895217896
aF0.25200000405311584
abag1
(g2
g3
Ntp1096
Rp1097
(lp1098
F3.0412774085998535
aF-0.4134230315685272
aF0.25200000405311584
abag1
(g2
g3
Ntp1099
Rp1100
(lp1101
F3.0222723484039307
aF-0.39833563566207886
aF0.25200000405311584
abag1
(g2
g3
Ntp1102
Rp1103
(lp1104
F3.011110782623291
aF-0.38453540205955505
aF0.25200000405311584
abag1
(g2
g3
Ntp1105
Rp1106
(lp1107
F2.993936061859131
aF-0.37003105878829956
aF0.25200000405311584
abag1
(g2
g3
Ntp1108
Rp1109
(lp1110
F2.9955246448516846
aF-0.358163982629776
aF0.25200000405311584
abag1
(g2
g3
Ntp1111
Rp1112
(lp1113
F2.9970617294311523
aF-0.34629008173942566
aF0.25200000405311584
abag1
(g2
g3
Ntp1114
Rp1115
(lp1116
F2.998546600341797
aF-0.33440959453582764
aF0.25200000405311584
abag1
(g2
g3
Ntp1117
Rp1118
(lp1119
F3.0009729862213135
aF-0.32264024019241333
aF0.25200000405311584
abag1
(g2
g3
Ntp1120
Rp1121
(lp1122
F3.0073227882385254
aF-0.31130895018577576
aF0.25200000405311584
abag1
(g2
g3
Ntp1123
Rp1124
(lp1125
F3.008655071258545
aF-0.2993840277194977
aF0.25200000405311584
abag1
(g2
g3
Ntp1126
Rp1127
(lp1128
F3.021869659423828
aF-0.2887077331542969
aF0.25200000405311584
abag1
(g2
g3
Ntp1129
Rp1130
(lp1131
F3.0420074462890625
aF-0.278623104095459
aF0.25200000405311584
abag1
(g2
g3
Ntp1132
Rp1133
(lp1134
F3.0431969165802
aF-0.26654714345932007
aF0.25200000405311584
abag1
(g2
g3
Ntp1135
Rp1136
(lp1137
F3.0443334579467773
aF-0.25446611642837524
aF0.25200000405311584
abag1
(g2
g3
Ntp1138
Rp1139
(lp1140
F3.034459352493286
aF-0.24142152070999146
aF0.25200000405311584
abag1
(g2
g3
Ntp1141
Rp1142
(lp1143
F3.022531032562256
aF-0.22830232977867126
aF0.25200000405311584
abag1
(g2
g3
Ntp1144
Rp1145
(lp1146
F3.02350115776062
aF-0.21631184220314026
aF0.25200000405311584
abag1
(g2
g3
Ntp1147
Rp1148
(lp1149
F3.024418830871582
aF-0.20431721210479736
aF0.25200000405311584
abag1
(g2
g3
Ntp1150
Rp1151
(lp1152
F3.038252592086792
aF-0.19322554767131805
aF0.25200000405311584
abag1
(g2
g3
Ntp1153
Rp1154
(lp1155
F3.0899600982666016
aF-0.18450234830379486
aF0.25200000405311584
abag1
(g2
g3
Ntp1156
Rp1157
(lp1158
F3.4067318439483643
aF-0.0409967415034771
aF0.25200000405311584
abag1
(g2
g3
Ntp1159
Rp1160
(lp1161
F3.4408793449401855
aF-0.0276283398270607
aF0.25200000405311584
abag1
(g2
g3
Ntp1162
Rp1163
(lp1164
F3.4619698524475098
aF-0.013905997388064861
aF0.25200000405311584
abag1
(g2
g3
Ntp1165
Rp1166
(lp1167
F3.5429999828338623
aF-1.3391672837315127e-07
aF0.25200000405311584
abag1
(g2
g3
Ntp1168
Rp1169
(lp1170
F3.6940581798553467
aF0.16422899067401886
aF0.25200000405311584
abag1
(g2
g3
Ntp1171
Rp1172
(lp1173
F0.8629302382469177
aF0.10366793721914291
aF0.25200000405311584
abag1
(g2
g3
Ntp1174
Rp1175
(lp1176
F0.8624722957611084
aF0.10623227059841156
aF0.25200000405311584
abag1
(g2
g3
Ntp1177
Rp1178
(lp1179
F0.8620031476020813
aF0.10879458487033844
aF0.25200000405311584
abag1
(g2
g3
Ntp1180
Rp1181
(lp1182
F0.8165457248687744
aF0.14257706701755524
aF0.25200000405311584
abag1
(g2
g3
Ntp1183
Rp1184
(lp1185
F1.0045934915542603
aF0.23003989458084106
aF0.25200000405311584
abag1
(g2
g3
Ntp1186
Rp1187
(lp1188
F1.0016779899597168
aF0.23261143267154694
aF0.25200000405311584
abag1
(g2
g3
Ntp1189
Rp1190
(lp1191
F0.9968518614768982
aF0.23454387485980988
aF0.25200000405311584
abag1
(g2
g3
Ntp1192
Rp1193
(lp1194
F0.9958216547966003
aF0.23769129812717438
aF0.25200000405311584
abag1
(g2
g3
Ntp1195
Rp1196
(lp1197
F0.9947776198387146
aF0.24083420634269714
aF0.25200000405311584
abag1
(g2
g3
Ntp1198
Rp1199
(lp1200
F0.9937199354171753
aF0.2439725250005722
aF0.25200000405311584
abag1
(g2
g3
Ntp1201
Rp1202
(lp1203
F0.9964306950569153
aF0.2484084814786911
aF0.25200000405311584
abag1
(g2
g3
Ntp1204
Rp1205
(lp1206
F0.9953399300575256
aF0.2515539228916168
aF0.25200000405311584
abag1
(g2
g3
Ntp1207
Rp1208
(lp1209
F0.71776282787323
aF0.18794165551662445
aF0.25200000405311584
abag1
(g2
g3
Ntp1210
Rp1211
(lp1212
F0.7086694240570068
aF0.18631908297538757
aF0.25200000405311584
abag1
(g2
g3
Ntp1213
Rp1214
(lp1215
F0.7078523635864258
aF0.18820954859256744
aF0.25200000405311584
abag1
(g2
g3
Ntp1216
Rp1217
(lp1218
F0.707027018070221
aF0.1900964230298996
aF0.25200000405311584
abag1
(g2
g3
Ntp1219
Rp1220
(lp1221
F0.7125882506370544
aF0.19482682645320892
aF0.25200000405311584
abag1
(g2
g3
Ntp1222
Rp1223
(lp1224
F0.710934042930603
aF0.20327936112880707
aF0.25200000405311584
abag1
(g2
g3
Ntp1225
Rp1226
(lp1227
F0.7001295685768127
aF0.20505814254283905
aF0.25200000405311584
abag1
(g2
g3
Ntp1228
Rp1229
(lp1230
F0.7010284066200256
aF0.2077879011631012
aF0.25200000405311584
abag1
(g2
g3
Ntp1231
Rp1232
(lp1233
F0.7001177072525024
aF0.20964482426643372
aF0.25200000405311584
abag1
(g2
g3
Ntp1234
Rp1235
(lp1236
F0.6991989016532898
aF0.21149775385856628
aF0.25200000405311584
abag1
(g2
g3
Ntp1237
Rp1238
(lp1239
F0.6982720494270325
aF0.21334664523601532
aF0.25200000405311584
abag1
(g2
g3
Ntp1240
Rp1241
(lp1242
F0.6973370909690857
aF0.21519148349761963
aF0.25200000405311584
abag1
(g2
g3
Ntp1243
Rp1244
(lp1245
F0.696394145488739
aF0.21703222393989563
aF0.25200000405311584
abag1
(g2
g3
Ntp1246
Rp1247
(lp1248
F0.6954431533813477
aF0.21886882185935974
aF0.25200000405311584
abag1
(g2
g3
Ntp1249
Rp1250
(lp1251
F0.6953691244125366
aF0.22116687893867493
aF0.25200000405311584
abag1
(g2
g3
Ntp1252
Rp1253
(lp1254
F0.7047032117843628
aF0.2556465268135071
aF0.25200000405311584
abag1
(g2
g3
Ntp1255
Rp1256
(lp1257
F0.7035836577415466
aF0.257519006729126
aF0.25200000405311584
abag1
(g2
g3
Ntp1258
Rp1259
(lp1260
F0.70587557554245
aF0.26146170496940613
aF0.25200000405311584
abag1
(g2
g3
Ntp1261
Rp1262
(lp1263
F0.7013201117515564
aF0.26124927401542664
aF0.25200000405311584
abag1
(g2
g3
Ntp1264
Rp1265
(lp1266
F0.7035775184631348
aF0.2652117908000946
aF0.25200000405311584
abag1
(g2
g3
Ntp1267
Rp1268
(lp1269
F0.7032642960548401
aF0.26760920882225037
aF0.25200000405311584
abag1
(g2
g3
Ntp1270
Rp1271
(lp1272
F0.7020925283432007
aF0.2694753110408783
aF0.25200000405311584
abag1
(g2
g3
Ntp1273
Rp1274
(lp1275
F0.7025994658470154
aF0.27241089940071106
aF0.25200000405311584
abag1
(g2
g3
Ntp1276
Rp1277
(lp1278
F0.7014068365097046
aF0.2742740511894226
aF0.25200000405311584
abag1
(g2
g3
Ntp1279
Rp1280
(lp1281
F0.7002059817314148
aF0.2761319875717163
aF0.25200000405311584
abag1
(g2
g3
Ntp1282
Rp1283
(lp1284
F0.6989970803260803
aF0.2779846787452698
aF0.25200000405311584
abag1
(g2
g3
Ntp1285
Rp1286
(lp1287
F0.6924278140068054
aF0.2842164635658264
aF0.25200000405311584
abag1
(g2
g3
Ntp1288
Rp1289
(lp1290
F0.6911837458610535
aF0.28603512048721313
aF0.25200000405311584
abag1
(g2
g3
Ntp1291
Rp1292
(lp1293
F0.6899316906929016
aF0.2878483533859253
aF0.25200000405311584
abag1
(g2
g3
Ntp1294
Rp1295
(lp1296
F0.6911292672157288
aF0.29137682914733887
aF0.25200000405311584
abag1
(g2
g3
Ntp1297
Rp1298
(lp1299
F0.6898539066314697
aF0.29318973422050476
aF0.25200000405311584
abag1
(g2
g3
Ntp1300
Rp1301
(lp1302
F3.034848690032959
aF2.3363840579986572
aF0.25200000405311584
abag1
(g2
g3
Ntp1303
Rp1304
(lp1305
F3.024628162384033
aF2.3484039306640625
aF0.25200000405311584
abag1
(g2
g3
Ntp1306
Rp1307
(lp1308
F3.001476526260376
aF2.3492822647094727
aF0.25200000405311584
abag1
(g2
g3
Ntp1309
Rp1310
(lp1311
F2.9911999702453613
aF2.3611562252044678
aF0.25200000405311584
abag1
(g2
g3
Ntp1312
Rp1313
(lp1314
F3.012807607650757
aF2.643869638442993
aF0.25200000405311584
abag1
(g2
g3
Ntp1315
Rp1316
(lp1317
F4.389890193939209
aF4.451462745666504
aF0.25200000405311584
abag1
(g2
g3
Ntp1318
Rp1319
(lp1320
F2.4566214084625244
aF2.599954843521118
aF0.25200000405311584
abag1
(g2
g3
Ntp1321
Rp1322
(lp1323
F2.4331068992614746
aF2.5948410034179688
aF0.25200000405311584
abag1
(g2
g3
Ntp1324
Rp1325
(lp1326
F2.420491933822632
aF2.602689504623413
aF0.25200000405311584
abag1
(g2
g3
Ntp1327
Rp1328
(lp1329
F2.408482551574707
aF2.6112518310546875
aF0.25200000405311584
abag1
(g2
g3
Ntp1330
Rp1331
(lp1332
F2.388887405395508
aF2.6104331016540527
aF0.25200000405311584
abag1
(g2
g3
Ntp1333
Rp1334
(lp1335
F2.369922637939453
aF2.754962921142578
aF0.25200000405311584
abag1
(g2
g3
Ntp1336
Rp1337
(lp1338
F2.357882022857666
aF2.7640774250030518
aF0.25200000405311584
abag1
(g2
g3
Ntp1339
Rp1340
(lp1341
F2.345801591873169
aF2.773139238357544
aF0.25200000405311584
abag1
(g2
g3
Ntp1342
Rp1343
(lp1344
F2.33368182182312
aF2.7821483612060547
aF0.25200000405311584
abag1
(g2
g3
Ntp1345
Rp1346
(lp1347
F2.3215229511260986
aF2.791104555130005
aF0.25200000405311584
abag1
(g2
g3
Ntp1348
Rp1349
(lp1350
F0.4546426236629486
aF0.28748828172683716
aF0.25200000405311584
abag1
(g2
g3
Ntp1351
Rp1352
(lp1353
F0.453386515378952
aF0.28826937079429626
aF0.25200000405311584
abag1
(g2
g3
Ntp1354
Rp1355
(lp1356
F0.42106178402900696
aF0.2835964560508728
aF0.25200000405311584
abag1
(g2
g3
Ntp1357
Rp1358
(lp1359
F0.4193689823150635
aF0.28334006667137146
aF0.25200000405311584
abag1
(g2
g3
Ntp1360
Rp1361
(lp1362
F0.4176812171936035
aF0.2830743193626404
aF0.25200000405311584
abag1
(g2
g3
Ntp1363
Rp1364
(lp1365
F0.41644471883773804
aF0.28369417786598206
aF0.25200000405311584
abag1
(g2
g3
Ntp1366
Rp1367
(lp1368
F0.41520553827285767
aF0.28430864214897156
aF0.25200000405311584
abag1
(g2
g3
Ntp1369
Rp1370
(lp1371
F0.4139636754989624
aF0.2849177122116089
aF0.25200000405311584
abag1
(g2
g3
Ntp1372
Rp1373
(lp1374
F1.01908540725708
aF1.913412094116211
aF0.25200000405311584
abag1
(g2
g3
Ntp1375
Rp1376
(lp1377
F1.0107295513153076
aF1.9166405200958252
aF0.25200000405311584
abag1
(g2
g3
Ntp1378
Rp1379
(lp1380
F1.0023596286773682
aF1.919832468032837
aF0.25200000405311584
abag1
(g2
g3
Ntp1381
Rp1382
(lp1383
F0.9929251670837402
aF1.920177936553955
aF0.25200000405311584
abag1
(g2
g3
Ntp1384
Rp1385
(lp1386
F0.9793483018875122
aF1.9092193841934204
aF0.25200000405311584
abag1
(g2
g3
Ntp1387
Rp1388
(lp1389
F0.9693009257316589
aF1.9075759649276733
aF0.25200000405311584
abag1
(g2
g3
Ntp1390
Rp1391
(lp1392
F0.956240177154541
aF1.8974108695983887
aF0.25200000405311584
abag1
(g2
g3
Ntp1393
Rp1394
(lp1395
F0.9522942304611206
aF1.9126195907592773
aF0.25200000405311584
abag1
(g2
g3
Ntp1396
Rp1397
(lp1398
F0.9432830214500427
aF1.9136683940887451
aF0.25200000405311584
abag1
(g2
g3
Ntp1399
Rp1400
(lp1401
F0.9319965839385986
aF1.908056378364563
aF0.25200000405311584
abag1
(g2
g3
Ntp1402
Rp1403
(lp1404
F0.9236648678779602
aF1.910904884338379
aF0.25200000405311584
abag1
(g2
g3
Ntp1405
Rp1406
(lp1407
F0.9181765913963318
aF1.9222519397735596
aF0.25200000405311584
abag1
(g2
g3
Ntp1408
Rp1409
(lp1410
F0.9097830653190613
aF1.9250400066375732
aF0.25200000405311584
abag1
(g2
g3
Ntp1411
Rp1412
(lp1413
F0.9041586518287659
aF1.9363510608673096
aF0.25200000405311584
abag1
(g2
g3
Ntp1414
Rp1415
(lp1416
F0.8978378176689148
aF1.945744514465332
aF0.25200000405311584
abag1
(g2
g3
Ntp1417
Rp1418
(lp1419
F0.8992652893066406
aF1.9799163341522217
aF0.25200000405311584
abag1
(g2
g3
Ntp1420
Rp1421
(lp1422
F0.8971443176269531
aF2.003631830215454
aF0.25200000405311584
abag1
(g2
g3
Ntp1423
Rp1424
(lp1425
F0.8901501893997192
aF2.0120651721954346
aF0.25200000405311584
abag1
(g2
g3
Ntp1426
Rp1427
(lp1428
F0.67325758934021
aF1.834262728691101
aF0.25200000405311584
abag1
(g2
g3
Ntp1429
Rp1430
(lp1431
F0.6640028953552246
aF1.8301142454147339
aF0.25200000405311584
abag1
(g2
g3
Ntp1432
Rp1433
(lp1434
F0.6549956202507019
aF1.8268989324569702
aF0.25200000405311584
abag1
(g2
g3
Ntp1435
Rp1436
(lp1437
F0.6470206379890442
aF1.828539490699768
aF0.25200000405311584
abag1
(g2
g3
Ntp1438
Rp1439
(lp1440
F0.6382582783699036
aF1.8262221813201904
aF0.25200000405311584
abag1
(g2
g3
Ntp1441
Rp1442
(lp1443
F0.6239897608757019
aF1.795396089553833
aF0.25200000405311584
abag1
(g2
g3
Ntp1444
Rp1445
(lp1446
F0.6159660220146179
aF1.7959192991256714
aF0.25200000405311584
abag1
(g2
g3
Ntp1447
Rp1448
(lp1449
F0.6050286293029785
aF1.7806745767593384
aF0.25200000405311584
abag1
(g2
g3
Ntp1450
Rp1451
(lp1452
F0.5968999862670898
aF1.7801296710968018
aF0.25200000405311584
abag1
(g2
g3
Ntp1453
Rp1454
(lp1455
F0.589129626750946
aF1.7815172672271729
aF0.25200000405311584
abag1
(g2
g3
Ntp1456
Rp1457
(lp1458
F0.5813533663749695
aF1.782870888710022
aF0.25200000405311584
abag1
(g2
g3
Ntp1459
Rp1460
(lp1461
F0.5737362504005432
aF1.7851768732070923
aF0.25200000405311584
abag1
(g2
g3
Ntp1462
Rp1463
(lp1464
F0.5657833814620972
aF1.7854764461517334
aF0.25200000405311584
abag1
(g2
g3
Ntp1465
Rp1466
(lp1467
F0.5581464767456055
aF1.7877157926559448
aF0.25200000405311584
abag1
(g2
g3
Ntp1468
Rp1469
(lp1470
F0.55034339427948
aF1.7889342308044434
aF0.25200000405311584
abag1
(g2
g3
Ntp1471
Rp1472
(lp1473
F0.542682945728302
aF1.7911076545715332
aF0.25200000405311584
abag1
(g2
g3
Ntp1474
Rp1475
(lp1476
F0.5348652005195618
aF1.792258620262146
aF0.25200000405311584
abag1
(g2
g3
Ntp1477
Rp1478
(lp1479
F0.5274600982666016
aF1.7963463068008423
aF0.25200000405311584
abag1
(g2
g3
Ntp1480
Rp1481
(lp1482
F0.5233954787254333
aF1.8251749277114868
aF0.25200000405311584
abag1
(g2
g3
Ntp1483
Rp1484
(lp1485
F0.519997775554657
aF1.860942006111145
aF0.25200000405311584
abag1
(g2
g3
Ntp1486
Rp1487
(lp1488
F0.32240086793899536
aF2.7155864238739014
aF0.25200000405311584
abag1
(g2
g3
Ntp1489
Rp1490
(lp1491
F0.3105514943599701
aF2.7157673835754395
aF0.25200000405311584
abag1
(g2
g3
Ntp1492
Rp1493
(lp1494
F0.2987014055252075
aF2.7158966064453125
aF0.25200000405311584
abag1
(g2
g3
Ntp1495
Rp1496
(lp1497
F0.2868508994579315
aF2.7159743309020996
aF0.25200000405311584
abag1
(g2
g3
Ntp1498
Rp1499
(lp1500
F0.08904782682657242
aF3.2747247219085693
aF0.25200000405311584
abag1
(g2
g3
Ntp1501
Rp1502
(lp1503
F0.07488305121660233
aF3.271886110305786
aF0.25200000405311584
abag1
(g2
g3
Ntp1504
Rp1505
(lp1506
F0.06060870736837387
aF3.270981788635254
aF0.25200000405311584
abag1
(g2
g3
Ntp1507
Rp1508
(lp1509
F0.04619894176721573
aF3.272010087966919
aF0.25200000405311584
abag1
(g2
g3
Ntp1510
Rp1511
(lp1512
F-0.3495209515094757
aF3.369614601135254
aF0.25200000405311584
abag1
(g2
g3
Ntp1513
Rp1514
(lp1515
F-0.3642176687717438
aF3.3668575286865234
aF0.25200000405311584
abag1
(g2
g3
Ntp1516
Rp1517
(lp1518
F-0.37890222668647766
aF3.3640363216400146
aF0.25200000405311584
abag1
(g2
g3
Ntp1519
Rp1520
(lp1521
F-1.4581280946731567
aF6.951198577880859
aF0.25200000405311584
abag1
(g2
g3
Ntp1522
Rp1523
(lp1524
F-1.4763802289962769
aF6.896077632904053
aF0.25200000405311584
abag1
(g2
g3
Ntp1525
Rp1526
(lp1527
F-1.4869238138198853
aF6.812855243682861
aF0.25200000405311584
abag1
(g2
g3
Ntp1528
Rp1529
(lp1530
F-1.5161243677139282
aF6.803168296813965
aF0.25200000405311584
abag1
(g2
g3
Ntp1531
Rp1532
(lp1533
F-1.5349212884902954
aF6.754719257354736
aF0.25200000405311584
abag1
(g2
g3
Ntp1534
Rp1535
(lp1536
F-1.564376950263977
aF6.746757984161377
aF0.25200000405311584
abag1
(g2
g3
Ntp1537
Rp1538
(lp1539
F-1.6028836965560913
aF6.7714314460754395
aF0.25200000405311584
abag1
(g2
g3
Ntp1540
Rp1541
(lp1542
F-1.633768916130066
aF6.7679853439331055
aF0.25200000405311584
abag1
(g2
g3
Ntp1543
Rp1544
(lp1545
F-1.6679673194885254
aF6.775933742523193
aF0.25200000405311584
abag1
(g2
g3
Ntp1546
Rp1547
(lp1548
F-1.7042303085327148
aF6.790432453155518
aF0.25200000405311584
abag1
(g2
g3
Ntp1549
Rp1550
(lp1551
F-1.7426446676254272
aF6.811455726623535
aF0.25200000405311584
abag1
(g2
g3
Ntp1552
Rp1553
(lp1554
F-1.7807036638259888
aF6.830356597900391
aF0.25200000405311584
abag1
(g2
g3
Ntp1555
Rp1556
(lp1557
F-1.8163343667984009
aF6.840447902679443
aF0.25200000405311584
abag1
(g2
g3
Ntp1558
Rp1559
(lp1560
F-1.8615816831588745
aF6.880918979644775
aF0.25200000405311584
abag1
(g2
g3
Ntp1561
Rp1562
(lp1563
F-1.8982006311416626
aF6.892512798309326
aF0.25200000405311584
abag1
(g2
g3
Ntp1564
Rp1565
(lp1566
F-1.9282540082931519
aF6.882964611053467
aF0.25200000405311584
abag1
(g2
g3
Ntp1567
Rp1568
(lp1569
F-1.785469651222229
aF5.230807781219482
aF0.25200000405311584
abag1
(g2
g3
Ntp1570
Rp1571
(lp1572
F-1.8082736730575562
aF5.221767425537109
aF0.25200000405311584
abag1
(g2
g3
Ntp1573
Rp1574
(lp1575
F-1.8310381174087524
aF5.21262788772583
aF0.25200000405311584
abag1
(g2
g3
Ntp1576
Rp1577
(lp1578
F-2.209848642349243
aF5.516160488128662
aF0.25200000405311584
abag1
(g2
g3
Ntp1579
Rp1580
(lp1581
F-2.2596046924591064
aF5.561683654785156
aF0.25200000405311584
abag1
(g2
g3
Ntp1582
Rp1583
(lp1584
F-2.307711601257324
aF5.602335453033447
aF0.25200000405311584
abag1
(g2
g3
Ntp1585
Rp1586
(lp1587
F-2.3426969051361084
aF5.613670349121094
aF0.25200000405311584
abag1
(g2
g3
Ntp1588
Rp1589
(lp1590
F-2.3897745609283447
aF5.650131702423096
aF0.25200000405311584
abag1
(g2
g3
Ntp1591
Rp1592
(lp1593
F-2.430331230163574
aF5.67184591293335
aF0.25200000405311584
abag1
(g2
g3
Ntp1594
Rp1595
(lp1596
F-2.4550535678863525
aF5.659987926483154
aF0.25200000405311584
abag1
(g2
g3
Ntp1597
Rp1598
(lp1599
F-2.5033957958221436
aF5.696556568145752
aF0.25200000405311584
abag1
(g2
g3
Ntp1600
Rp1601
(lp1602
F-2.5348596572875977
aF5.697833061218262
aF0.25200000405311584
abag1
(g2
g3
Ntp1603
Rp1604
(lp1605
F-2.565495014190674
aF5.697152614593506
aF0.25200000405311584
abag1
(g2
g3
Ntp1606
Rp1607
(lp1608
F-2.604729413986206
aF5.7132792472839355
aF0.25200000405311584
abag1
(g2
g3
Ntp1609
Rp1610
(lp1611
F-2.646428346633911
aF5.7336273193359375
aF0.25200000405311584
abag1
(g2
g3
Ntp1612
Rp1613
(lp1614
F-2.6833229064941406
aF5.7439398765563965
aF0.25200000405311584
abag1
(g2
g3
Ntp1615
Rp1616
(lp1617
F-2.7212862968444824
aF5.755813121795654
aF0.25200000405311584
abag1
(g2
g3
Ntp1618
Rp1619
(lp1620
F-2.7463722229003906
aF5.742684841156006
aF0.25200000405311584
abag1
(g2
g3
Ntp1621
Rp1622
(lp1623
F-2.7953436374664307
aF5.774477481842041
aF0.25200000405311584
abag1
(g2
g3
Ntp1624
Rp1625
(lp1626
F-2.833289861679077
aF5.784809589385986
aF0.25200000405311584
abag1
(g2
g3
Ntp1627
Rp1628
(lp1629
F-2.8794960975646973
aF5.8098602294921875
aF0.25200000405311584
abag1
(g2
g3
Ntp1630
Rp1631
(lp1632
F-2.9173221588134766
aF5.818835735321045
aF0.25200000405311584
abag1
(g2
g3
Ntp1633
Rp1634
(lp1635
F-2.9543163776397705
aF5.825841903686523
aF0.25200000405311584
abag1
(g2
g3
Ntp1636
Rp1637
(lp1638
F-2.999250650405884
aF5.8465962409973145
aF0.25200000405311584
abag1
(g2
g3
Ntp1639
Rp1640
(lp1641
F-3.0395026206970215
aF5.858364105224609
aF0.25200000405311584
abag1
(g2
g3
Ntp1642
Rp1643
(lp1644
F-3.065032720565796
aF5.843846321105957
aF0.25200000405311584
abag1
(g2
g3
Ntp1645
Rp1646
(lp1647
F-3.125499725341797
aF5.889839172363281
aF0.25200000405311584
abag1
(g2
g3
Ntp1648
Rp1649
(lp1650
F-3.1511664390563965
aF5.874945640563965
aF0.25200000405311584
abag1
(g2
g3
Ntp1651
Rp1652
(lp1653
F-2.997236728668213
aF4.382057189941406
aF0.25200000405311584
abag1
(g2
g3
Ntp1654
Rp1655
(lp1656
F-3.0163259506225586
aF4.367737770080566
aF0.25200000405311584
abag1
(g2
g3
Ntp1657
Rp1658
(lp1659
F-2.8303747177124023
aF3.939149856567383
aF0.25200000405311584
abag1
(g2
g3
Ntp1660
Rp1661
(lp1662
F-2.8481557369232178
aF3.9263453483581543
aF0.25200000405311584
abag1
(g2
g3
Ntp1663
Rp1664
(lp1665
F-2.865257978439331
aF3.9126808643341064
aF0.25200000405311584
abag1
(g2
g3
Ntp1666
Rp1667
(lp1668
F-2.8885931968688965
aF3.9067130088806152
aF0.25200000405311584
abag1
(g2
g3
Ntp1669
Rp1670
(lp1671
F-2.9094057083129883
aF3.8975183963775635
aF0.25200000405311584
abag1
(g2
g3
Ntp1672
Rp1673
(lp1674
F-2.9441914558410645
aF3.9051921367645264
aF0.25200000405311584
abag1
(g2
g3
Ntp1675
Rp1676
(lp1677
F-2.961200475692749
aF3.891108512878418
aF0.25200000405311584
aba.