(lp0
ccopy_reg
_reconstructor
p1
(cgeometry_msgs.msg._Point32
Point32
p2
c__builtin__
object
p3
Ntp4
Rp5
(lp6
F-6.588984966278076
aF5.988522529602051
aF0.29930782318115234
abag1
(g2
g3
Ntp7
Rp8
(lp9
F-6.566410064697266
aF5.969350814819336
aF0.2993690073490143
abag1
(g2
g3
Ntp10
Rp11
(lp12
F-6.5227532386779785
aF5.950043201446533
aF0.299450546503067
abag1
(g2
g3
Ntp13
Rp14
(lp15
F-6.523006439208984
aF5.93162727355957
aF0.2994884252548218
abag1
(g2
g3
Ntp16
Rp17
(lp18
F-6.495179653167725
aF5.913008689880371
aF0.2995534837245941
abag1
(g2
g3
Ntp19
Rp20
(lp21
F-6.488271713256836
aF5.894693851470947
aF0.29959797859191895
abag1
(g2
g3
Ntp22
Rp23
(lp24
F-6.488283634185791
aF5.876428604125977
aF0.29963576793670654
abag1
(g2
g3
Ntp25
Rp26
(lp27
F-6.488216400146484
aF5.858164310455322
aF0.2996736466884613
abag1
(g2
g3
Ntp28
Rp29
(lp30
F-6.424072742462158
aF5.8405561447143555
aF0.29977115988731384
abag1
(g2
g3
Ntp31
Rp32
(lp33
F-6.419849395751953
aF5.822629928588867
aF0.29981231689453125
abag1
(g2
g3
Ntp34
Rp35
(lp36
F-6.412549018859863
aF5.804797172546387
aF0.29985618591308594
abag1
(g2
g3
Ntp37
Rp38
(lp39
F-6.397173881530762
aF5.7872138023376465
aF0.29990720748901367
abag1
(g2
g3
Ntp40
Rp41
(lp42
F-6.372726917266846
aF5.770012378692627
aF0.29996609687805176
abag1
(g2
g3
Ntp43
Rp44
(lp45
F-6.363201141357422
aF5.7525410652160645
aF0.3000113368034363
abag1
(g2
g3
Ntp46
Rp47
(lp48
F-6.309628963470459
aF5.736753940582275
aF0.3000950515270233
abag1
(g2
g3
Ntp49
Rp50
(lp51
F-6.30595588684082
aF5.7193922996521
aF0.30013447999954224
abag1
(g2
g3
Ntp52
Rp53
(lp54
F-6.284226417541504
aF5.7028727531433105
aF0.30018937587738037
abag1
(g2
g3
Ntp55
Rp56
(lp57
F-6.280406951904297
aF5.685648441314697
aF0.30022865533828735
abag1
(g2
g3
Ntp58
Rp59
(lp60
F-6.2795090675354
aF5.66829252243042
aF0.30026546120643616
abag1
(g2
g3
Ntp61
Rp62
(lp63
F-6.250582695007324
aF5.652570724487305
aF0.30032554268836975
abag1
(g2
g3
Ntp64
Rp65
(lp66
F-6.226585865020752
aF5.636784076690674
aF0.300381064414978
abag1
(g2
g3
Ntp67
Rp68
(lp69
F-6.207515716552734
aF5.62086820602417
aF0.3004321753978729
abag1
(g2
g3
Ntp70
Rp71
(lp72
F-6.190376281738281
aF5.604971408843994
aF0.3004814088344574
abag1
(g2
g3
Ntp73
Rp74
(lp75
F-6.188129901885986
aF5.588084697723389
aF0.3005185127258301
abag1
(g2
g3
Ntp76
Rp77
(lp78
F-6.156903266906738
aF5.573531627655029
aF0.30057838559150696
abag1
(g2
g3
Ntp79
Rp80
(lp81
F-6.144556045532227
aF5.557643413543701
aF0.3006230294704437
abag1
(g2
g3
Ntp82
Rp83
(lp84
F-6.131148338317871
aF5.541945457458496
aF0.30066829919815063
abag1
(g2
g3
Ntp85
Rp86
(lp87
F-6.125641822814941
aF5.5256147384643555
aF0.3007073402404785
abag1
(g2
g3
Ntp88
Rp89
(lp90
F-6.1091179847717285
aF5.5103960037231445
aF0.300754576921463
abag1
(g2
g3
Ntp91
Rp92
(lp93
F-6.091540336608887
aF5.495416164398193
aF0.3008023202419281
abag1
(g2
g3
Ntp94
Rp95
(lp96
F-6.070920944213867
aF5.48090124130249
aF0.3008520007133484
abag1
(g2
g3
Ntp97
Rp98
(lp99
F-6.069131851196289
aF5.464461326599121
aF0.3008877635002136
abag1
(g2
g3
Ntp100
Rp101
(lp102
F-6.030514717102051
aF5.452273845672607
aF0.30094975233078003
abag1
(g2
g3
Ntp103
Rp104
(lp105
F-6.014700412750244
aF5.437677383422852
aF0.30099502205848694
abag1
(g2
g3
Ntp106
Rp107
(lp108
F-6.008753299713135
aF5.421976566314697
aF0.3010331988334656
abag1
(g2
g3
Ntp109
Rp110
(lp111
F-6.001748561859131
aF5.406446933746338
aF0.30107203125953674
abag1
(g2
g3
Ntp112
Rp113
(lp114
F-5.97287130355835
aF5.393874645233154
aF0.30112552642822266
abag1
(g2
g3
Ntp115
Rp116
(lp117
F-5.960796356201172
aF5.379227161407471
aF0.301167368888855
abag1
(g2
g3
Ntp118
Rp119
(lp120
F-5.947673797607422
aF5.364816188812256
aF0.3012096881866455
abag1
(g2
g3
Ntp121
Rp122
(lp123
F-5.935484409332275
aF5.350365161895752
aF0.30125120282173157
abag1
(g2
g3
Ntp124
Rp125
(lp126
F-5.924227714538574
aF5.3358612060546875
aF0.30129197239875793
abag1
(g2
g3
Ntp127
Rp128
(lp129
F-5.901055812835693
aF5.323289394378662
aF0.3013400435447693
abag1
(g2
g3
Ntp130
Rp131
(lp132
F-5.887718677520752
aF5.309329032897949
aF0.3013816475868225
abag1
(g2
g3
Ntp133
Rp134
(lp135
F-5.8792619705200195
aF5.294663906097412
aF0.30142006278038025
abag1
(g2
g3
Ntp136
Rp137
(lp138
F-5.853982925415039
aF5.28289270401001
aF0.30146849155426025
abag1
(g2
g3
Ntp139
Rp140
(lp141
F-5.8414788246154785
aF5.269109725952148
aF0.30150893330574036
abag1
(g2
g3
Ntp142
Rp143
(lp144
F-5.823014259338379
aF5.256475448608398
aF0.3015526831150055
abag1
(g2
g3
Ntp145
Rp146
(lp147
F-5.820248126983643
aF5.241119384765625
aF0.3015871047973633
abag1
(g2
g3
Ntp148
Rp149
(lp150
F-5.809551239013672
aF5.227245330810547
aF0.3016260266304016
abag1
(g2
g3
Ntp151
Rp152
(lp153
F-5.805675029754639
aF5.212136268615723
aF0.3016609847545624
abag1
(g2
g3
Ntp154
Rp155
(lp156
F-5.787995338439941
aF5.199740886688232
aF0.30170348286628723
abag1
(g2
g3
Ntp157
Rp158
(lp159
F-5.767333030700684
aF5.188076972961426
aF0.30174729228019714
abag1
(g2
g3
Ntp160
Rp161
(lp162
F-5.740757942199707
aF5.1777849197387695
aF0.3017939031124115
abag1
(g2
g3
Ntp163
Rp164
(lp165
F-5.7151384353637695
aF5.167506694793701
aF0.30183959007263184
abag1
(g2
g3
Ntp166
Rp167
(lp168
F-5.711984634399414
aF5.152622222900391
aF0.3018733859062195
abag1
(g2
g3
Ntp169
Rp170
(lp171
F-5.698997497558594
aF5.139888286590576
aF0.3019121289253235
abag1
(g2
g3
Ntp172
Rp173
(lp174
F-5.69084358215332
aF5.126163959503174
aF0.30194830894470215
abag1
(g2
g3
Ntp175
Rp176
(lp177
F-5.68556022644043
aF5.111830234527588
aF0.3019830286502838
abag1
(g2
g3
Ntp178
Rp179
(lp180
F-5.682163715362549
aF5.097075462341309
aF0.3020167946815491
abag1
(g2
g3
Ntp181
Rp182
(lp183
F-5.6465935707092285
aF5.0899481773376465
aF0.3020654022693634
abag1
(g2
g3
Ntp184
Rp185
(lp186
F-5.634354114532471
aF5.07747745513916
aF0.3021028935909271
abag1
(g2
g3
Ntp187
Rp188
(lp189
F-5.624011516571045
aF5.064620494842529
aF0.3021393418312073
abag1
(g2
g3
Ntp190
Rp191
(lp192
F-5.614590644836426
aF5.051595211029053
aF0.30217528343200684
abag1
(g2
g3
Ntp193
Rp194
(lp195
F-5.610932350158691
aF5.0371503829956055
aF0.30220869183540344
abag1
(g2
g3
Ntp196
Rp197
(lp198
F-5.583016872406006
aF5.029018402099609
aF0.3022520840167999
abag1
(g2
g3
Ntp199
Rp200
(lp201
F-5.577326774597168
aF5.015223503112793
aF0.3022860586643219
abag1
(g2
g3
Ntp202
Rp203
(lp204
F-5.564820289611816
aF5.003284454345703
aF0.3023226857185364
abag1
(g2
g3
Ntp205
Rp206
(lp207
F-5.559023380279541
aF4.989586353302002
aF0.3023565709590912
abag1
(g2
g3
Ntp208
Rp209
(lp210
F-5.5550947189331055
aF4.9753851890563965
aF0.3023897111415863
abag1
(g2
g3
Ntp211
Rp212
(lp213
F-5.528977870941162
aF4.967477321624756
aF0.3024309575557709
abag1
(g2
g3
Ntp214
Rp215
(lp216
F-5.51054048538208
aF4.957563400268555
aF0.30246904492378235
abag1
(g2
g3
Ntp217
Rp218
(lp219
F-5.499755382537842
aF4.945542812347412
aF0.30250418186187744
abag1
(g2
g3
Ntp220
Rp221
(lp222
F-5.478384494781494
aF4.936738967895508
aF0.3025427460670471
abag1
(g2
g3
Ntp223
Rp224
(lp225
F-5.471355438232422
aF4.923758506774902
aF0.30257633328437805
abag1
(g2
g3
Ntp226
Rp227
(lp228
F-5.455670356750488
aF4.913465976715088
aF0.3026125729084015
abag1
(g2
g3
Ntp229
Rp230
(lp231
F-5.442819595336914
aF4.902398109436035
aF0.3026477098464966
abag1
(g2
g3
Ntp232
Rp233
(lp234
F-5.438511848449707
aF4.888704299926758
aF0.3026801645755768
abag1
(g2
g3
Ntp235
Rp236
(lp237
F-5.430336952209473
aF4.876254558563232
aF0.3027137219905853
abag1
(g2
g3
Ntp238
Rp239
(lp240
F-5.423063278198242
aF4.863546848297119
aF0.3027469515800476
abag1
(g2
g3
Ntp241
Rp242
(lp243
F-5.409094333648682
aF4.853085994720459
aF0.3027819097042084
abag1
(g2
g3
Ntp244
Rp245
(lp246
F-5.40078067779541
aF4.840814590454102
aF0.3028152287006378
abag1
(g2
g3
Ntp247
Rp248
(lp249
F-5.388632774353027
aF4.829888343811035
aF0.3028494417667389
abag1
(g2
g3
Ntp250
Rp251
(lp252
F-5.382119655609131
aF4.817085266113281
aF0.3028821349143982
abag1
(g2
g3
Ntp253
Rp254
(lp255
F-5.347245216369629
aF4.814253330230713
aF0.30292120575904846
abag1
(g2
g3
Ntp256
Rp257
(lp258
F-5.341611862182617
aF4.8013129234313965
aF0.3029533624649048
abag1
(g2
g3
Ntp259
Rp260
(lp261
F-5.332160949707031
aF4.789758205413818
aF0.3029862642288208
abag1
(g2
g3
Ntp262
Rp263
(lp264
F-5.305761814117432
aF4.78444766998291
aF0.3030224144458771
abag1
(g2
g3
Ntp265
Rp266
(lp267
F-5.296252727508545
aF4.773090839385986
aF0.30305495858192444
abag1
(g2
g3
Ntp268
Rp269
(lp270
F-5.288573741912842
aF4.7610931396484375
aF0.30308711528778076
abag1
(g2
g3
Ntp271
Rp272
(lp273
F-5.277108669281006
aF4.750563621520996
aF0.30311983823776245
abag1
(g2
g3
Ntp274
Rp275
(lp276
F-5.272140026092529
aF4.737594127655029
aF0.3031514286994934
abag1
(g2
g3
Ntp277
Rp278
(lp279
F-5.265252113342285
aF4.725374698638916
aF0.30318328738212585
abag1
(g2
g3
Ntp280
Rp281
(lp282
F-5.253664493560791
aF4.715032577514648
aF0.30321571230888367
abag1
(g2
g3
Ntp283
Rp284
(lp285
F-5.241115093231201
aF4.705142021179199
aF0.3032481372356415
abag1
(g2
g3
Ntp286
Rp287
(lp288
F-5.229462623596191
aF4.694962024688721
aF0.3032803237438202
abag1
(g2
g3
Ntp289
Rp290
(lp291
F-5.224251747131348
aF4.682201385498047
aF0.30331170558929443
abag1
(g2
g3
Ntp292
Rp293
(lp294
F-5.206059455871582
aF4.674840450286865
aF0.3033442497253418
abag1
(g2
g3
Ntp295
Rp296
(lp297
F-5.198917865753174
aF4.662958145141602
aF0.3033756613731384
abag1
(g2
g3
Ntp298
Rp299
(lp300
F-5.186208724975586
aF4.653468132019043
aF0.3034074008464813
abag1
(g2
g3
Ntp301
Rp302
(lp303
F-5.179898738861084
aF4.641292572021484
aF0.30343863368034363
abag1
(g2
g3
Ntp304
Rp305
(lp306
F-5.161623954772949
aF4.634350299835205
aF0.3034704029560089
abag1
(g2
g3
Ntp307
Rp308
(lp309
F-5.153405666351318
aF4.623098850250244
aF0.30350151658058167
abag1
(g2
g3
Ntp310
Rp311
(lp312
F-5.147881984710693
aF4.610670566558838
aF0.30353251099586487
abag1
(g2
g3
Ntp313
Rp314
(lp315
F-5.142304420471191
aF4.598266124725342
aF0.30356350541114807
abag1
(g2
g3
Ntp316
Rp317
(lp318
F-5.136672496795654
aF4.585886478424072
aF0.3035944998264313
abag1
(g2
g3
Ntp319
Rp320
(lp321
F-5.113743782043457
aF4.581512451171875
aF0.3036253750324249
abag1
(g2
g3
Ntp322
Rp323
(lp324
F-5.104416847229004
aF4.570953845977783
aF0.30365610122680664
abag1
(g2
g3
Ntp325
Rp326
(lp327
F-5.085108757019043
aF4.565158843994141
aF0.3036864995956421
abag1
(g2
g3
Ntp328
Rp329
(lp330
F-5.079333305358887
aF4.5530290603637695
aF0.30371710658073425
abag1
(g2
g3
Ntp331
Rp332
(lp333
F-5.073504447937012
aF4.540924549102783
aF0.3037477135658264
abag1
(g2
g3
Ntp334
Rp335
(lp336
F-5.059539794921875
aF4.532803535461426
aF0.303777813911438
abag1
(g2
g3
Ntp337
Rp338
(lp339
F-5.050934791564941
aF4.522116661071777
aF0.30380815267562866
abag1
(g2
g3
Ntp340
Rp341
(lp342
F-5.043182849884033
aF4.511031627655029
aF0.30383846163749695
abag1
(g2
g3
Ntp343
Rp344
(lp345
F-5.029140949249268
aF4.503148555755615
aF0.3038681447505951
abag1
(g2
g3
Ntp346
Rp347
(lp348
F-5.02131462097168
aF4.49217414855957
aF0.30389833450317383
abag1
(g2
g3
Ntp349
Rp350
(lp351
F-5.01077938079834
aF4.482619285583496
aF0.3039281368255615
abag1
(g2
g3
Ntp352
Rp353
(lp354
F-5.004644393920898
aF4.470815181732178
aF0.3039584159851074
abag1
(g2
g3
Ntp355
Rp356
(lp357
F-5.002878665924072
aF4.45670223236084
aF0.30398932099342346
abag1
(g2
g3
Ntp358
Rp359
(lp360
F-4.996630668640137
aF4.444932460784912
aF0.30401962995529175
abag1
(g2
g3
Ntp361
Rp362
(lp363
F-4.97800874710083
aF4.439835071563721
aF0.30404791235923767
abag1
(g2
g3
Ntp364
Rp365
(lp366
F-4.984858989715576
aF4.42099666595459
aF0.30408039689064026
abag1
(g2
g3
Ntp367
Rp368
(lp369
F-4.978455066680908
aF4.409305572509766
aF0.30411070585250854
abag1
(g2
g3
Ntp370
Rp371
(lp372
F-4.9720001220703125
aF4.397642612457275
aF0.30414101481437683
abag1
(g2
g3
Ntp373
Rp374
(lp375
F-4.968110084533691
aF4.384538173675537
aF0.3041718304157257
abag1
(g2
g3
Ntp376
Rp377
(lp378
F-4.967634677886963
aF4.36946439743042
aF0.30420351028442383
abag1
(g2
g3
Ntp379
Rp380
(lp381
F-4.961006164550781
aF4.35784912109375
aF0.3042338490486145
abag1
(g2
g3
Ntp382
Rp383
(lp384
F-4.960383892059326
aF4.342753887176514
aF0.30426570773124695
abag1
(g2
g3
Ntp385
Rp386
(lp387
F-4.956227779388428
aF4.329655170440674
aF0.3042967915534973
abag1
(g2
g3
Ntp388
Rp389
(lp390
F-4.9606170654296875
aF4.3114752769470215
aF0.3043302297592163
abag1
(g2
g3
Ntp391
Rp392
(lp393
F-4.9700493812561035
aF4.290151596069336
aF0.3043654263019562
abag1
(g2
g3
Ntp394
Rp395
(lp396
F-4.970782279968262
aF4.273879528045654
aF0.30439841747283936
abag1
(g2
g3
Ntp397
Rp398
(lp399
F-4.963736534118652
aF4.262251377105713
aF0.30442920327186584
abag1
(g2
g3
Ntp400
Rp401
(lp402
F-4.9626030921936035
aF4.246987819671631
aF0.30446186661720276
abag1
(g2
g3
Ntp403
Rp404
(lp405
F-4.956290245056152
aF4.234868049621582
aF0.3044929802417755
abag1
(g2
g3
Ntp406
Rp407
(lp408
F-4.956699371337891
aF4.218522548675537
aF0.3045264184474945
abag1
(g2
g3
Ntp409
Rp410
(lp411
F-4.971380710601807
aF4.19304895401001
aF0.3045651912689209
abag1
(g2
g3
Ntp412
Rp413
(lp414
F-4.965667247772217
aF4.180342197418213
aF0.3045969307422638
abag1
(g2
g3
Ntp415
Rp416
(lp417
F-4.966616153717041
aF4.163314342498779
aF0.3046312928199768
abag1
(g2
g3
Ntp418
Rp419
(lp420
F-4.960763454437256
aF4.150613784790039
aF0.30466315150260925
abag1
(g2
g3
Ntp421
Rp422
(lp423
F-4.969889163970947
aF4.128039360046387
aF0.30470120906829834
abag1
(g2
g3
Ntp424
Rp425
(lp426
F-4.971370697021484
aF4.1103315353393555
aF0.304736465215683
abag1
(g2
g3
Ntp427
Rp428
(lp429
F-4.966103553771973
aF4.097031593322754
aF0.30476900935173035
abag1
(g2
g3
Ntp430
Rp431
(lp432
F-4.961598873138428
aF4.083183765411377
aF0.30480197072029114
abag1
(g2
g3
Ntp433
Rp434
(lp435
F-4.964456081390381
aF4.06426477432251
aF0.3048384189605713
abag1
(g2
g3
Ntp436
Rp437
(lp438
F-4.9581427574157715
aF4.051530838012695
aF0.3048708140850067
abag1
(g2
g3
Ntp439
Rp440
(lp441
F-4.965721607208252
aF4.029106616973877
aF0.30491000413894653
abag1
(g2
g3
Ntp442
Rp443
(lp444
F-4.975610256195068
aF4.004856586456299
aF0.3049508035182953
abag1
(g2
g3
Ntp445
Rp446
(lp447
F-4.9731011390686035
aF3.989161729812622
aF0.3049857020378113
abag1
(g2
g3
Ntp448
Rp449
(lp450
F-4.968066215515137
aF3.975198268890381
aF0.30501940846443176
abag1
(g2
g3
Ntp451
Rp452
(lp453
F-4.964581489562988
aF3.9600720405578613
aF0.30505403876304626
abag1
(g2
g3
Ntp454
Rp455
(lp456
F-4.969904899597168
aF3.9384605884552
aF0.3050937056541443
abag1
(g2
g3
Ntp457
Rp458
(lp459
F-4.971867561340332
aF3.9191367626190186
aF0.30513185262680054
abag1
(g2
g3
Ntp460
Rp461
(lp462
F-4.966485977172852
aF3.905122995376587
aF0.30516600608825684
abag1
(g2
g3
Ntp463
Rp464
(lp465
F-4.965034484863281
aF3.8881213665008545
aF0.30520257353782654
abag1
(g2
g3
Ntp466
Rp467
(lp468
F-4.959496974945068
aF3.874109983444214
aF0.3052368462085724
abag1
(g2
g3
Ntp469
Rp470
(lp471
F-4.968198776245117
aF3.849191904067993
aF0.3052801787853241
abag1
(g2
g3
Ntp472
Rp473
(lp474
F-4.971186637878418
aF3.8284294605255127
aF0.3053203225135803
abag1
(g2
g3
Ntp475
Rp476
(lp477
F-4.968515396118164
aF3.811896562576294
aF0.30535706877708435
abag1
(g2
g3
Ntp478
Rp479
(lp480
F-4.964176654815674
aF3.796581506729126
aF0.30539292097091675
abag1
(g2
g3
Ntp481
Rp482
(lp483
F-4.962892055511475
aF3.7787840366363525
aF0.3054310083389282
abag1
(g2
g3
Ntp484
Rp485
(lp486
F-4.969319820404053
aF3.75472092628479
aF0.3054746985435486
abag1
(g2
g3
Ntp487
Rp488
(lp489
F-4.974029541015625
aF3.731816291809082
aF0.30551764369010925
abag1
(g2
g3
Ntp490
Rp491
(lp492
F-4.975485324859619
aF3.7113521099090576
aF0.30555862188339233
abag1
(g2
g3
Ntp493
Rp494
(lp495
F-4.973719596862793
aF3.6933701038360596
aF0.30559754371643066
abag1
(g2
g3
Ntp496
Rp497
(lp498
F-4.9664530754089355
aF3.6798229217529297
aF0.30563250184059143
abag1
(g2
g3
Ntp499
Rp500
(lp501
F-4.966029644012451
aF3.660531997680664
aF0.30567285418510437
abag1
(g2
g3
Ntp502
Rp503
(lp504
F-4.977729797363281
aF3.6308999061584473
aF0.30572304129600525
abag1
(g2
g3
Ntp505
Rp506
(lp507
F-4.967878818511963
aF3.6192476749420166
aF0.3057565689086914
abag1
(g2
g3
Ntp508
Rp509
(lp510
F-4.968608856201172
aF3.5985300540924072
aF0.3057987689971924
abag1
(g2
g3
Ntp511
Rp512
(lp513
F-4.976017475128174
aF3.571877956390381
aF0.3058468997478485
abag1
(g2
g3
Ntp514
Rp515
(lp516
F-4.968923568725586
aF3.5576047897338867
aF0.3058831989765167
abag1
(g2
g3
Ntp517
Rp518
(lp519
F-4.964008808135986
aF3.541368246078491
aF0.3059214949607849
abag1
(g2
g3
Ntp520
Rp521
(lp522
F-4.972465515136719
aF3.5131828784942627
aF0.30597180128097534
abag1
(g2
g3
Ntp523
Rp524
(lp525
F-4.96657133102417
aF3.4975523948669434
aF0.30600976943969727
abag1
(g2
g3
Ntp526
Rp527
(lp528
F-4.976175785064697
aF3.467853307723999
aF0.30606213212013245
abag1
(g2
g3
Ntp529
Rp530
(lp531
F-4.975222587585449
aF3.4474539756774902
aF0.30610525608062744
abag1
(g2
g3
Ntp532
Rp533
(lp534
F-4.974142551422119
aF3.4270169734954834
aF0.30614858865737915
abag1
(g2
g3
Ntp535
Rp536
(lp537
F-4.963401794433594
aF3.4153823852539062
aF0.3061829209327698
abag1
(g2
g3
Ntp538
Rp539
(lp540
F-4.967947006225586
aF3.38944935798645
aF0.3062322735786438
abag1
(g2
g3
Ntp541
Rp542
(lp543
F-4.957769393920898
aF3.3771557807922363
aF0.3062674105167389
abag1
(g2
g3
Ntp544
Rp545
(lp546
F-4.968541145324707
aF3.344909429550171
aF0.30632394552230835
abag1
(g2
g3
Ntp547
Rp548
(lp549
F-4.966098308563232
aF3.32498836517334
aF0.30636751651763916
abag1
(g2
g3
Ntp550
Rp551
(lp552
F-4.970714569091797
aF3.298083543777466
aF0.3064188063144684
abag1
(g2
g3
Ntp553
Rp554
(lp555
F-4.959411144256592
aF3.2864649295806885
aF0.3064536452293396
abag1
(g2
g3
Ntp556
Rp557
(lp558
F-4.965861797332764
aF3.2573459148406982
aF0.30650779604911804
abag1
(g2
g3
Ntp559
Rp560
(lp561
F-4.963599681854248
aF3.2365827560424805
aF0.306552916765213
abag1
(g2
g3
Ntp562
Rp563
(lp564
F-4.97179651260376
aF3.205167055130005
aF0.3066101670265198
abag1
(g2
g3
Ntp565
Rp566
(lp567
F-4.967820167541504
aF3.185720682144165
aF0.3066542148590088
abag1
(g2
g3
Ntp568
Rp569
(lp570
F-4.9644246101379395
aF3.165544271469116
aF0.3066992163658142
abag1
(g2
g3
Ntp571
Rp572
(lp573
F-4.960903644561768
aF3.14534592628479
aF0.30674439668655396
abag1
(g2
g3
Ntp574
Rp575
(lp576
F-4.961418151855469
aF3.120804786682129
aF0.3067947030067444
abag1
(g2
g3
Ntp577
Rp578
(lp579
F-4.954864501953125
aF3.1034412384033203
aF0.30683690309524536
abag1
(g2
g3
Ntp580
Rp581
(lp582
F-4.954395294189453
aF3.0795445442199707
aF0.30688682198524475
abag1
(g2
g3
Ntp583
Rp584
(lp585
F-4.966081619262695
aF3.0424699783325195
aF0.30695247650146484
abag1
(g2
g3
Ntp586
Rp587
(lp588
F-4.961833477020264
aF3.022085428237915
aF0.30699869990348816
abag1
(g2
g3
Ntp589
Rp590
(lp591
F-4.951359272003174
aF3.0083022117614746
aF0.30703723430633545
abag1
(g2
g3
Ntp592
Rp593
(lp594
F-4.9482340812683105
aF2.9864346981048584
aF0.30708548426628113
abag1
(g2
g3
Ntp595
Rp596
(lp597
F-4.948324680328369
aF2.960833787918091
aF0.3071383833885193
abag1
(g2
g3
Ntp598
Rp599
(lp600
F-4.951582431793213
aF2.9314563274383545
aF0.30719611048698425
abag1
(g2
g3
Ntp601
Rp602
(lp603
F-4.961945533752441
aF2.89377760887146
aF0.3072642683982849
abag1
(g2
g3
Ntp604
Rp605
(lp606
F-4.967399597167969
aF2.8612022399902344
aF0.3073265254497528
abag1
(g2
g3
Ntp607
Rp608
(lp609
F-4.966037750244141
aF2.8360512256622314
aF0.30737990140914917
abag1
(g2
g3
Ntp610
Rp611
(lp612
F-4.957303047180176
aF2.8191676139831543
aF0.3074231743812561
abag1
(g2
g3
Ntp613
Rp614
(lp615
F-4.9654130935668945
aF2.7825798988342285
aF0.3074911832809448
abag1
(g2
g3
Ntp616
Rp617
(lp618
F-4.958343505859375
aF2.7633752822875977
aF0.30753767490386963
abag1
(g2
g3
Ntp619
Rp620
(lp621
F-4.956961631774902
aF2.737295627593994
aF0.3075929880142212
abag1
(g2
g3
Ntp622
Rp623
(lp624
F-4.943212032318115
aF2.7257423400878906
aF0.3076300024986267
abag1
(g2
g3
Ntp625
Rp626
(lp627
F-4.9294114112854
aF2.714249610900879
aF0.30766692757606506
abag1
(g2
g3
Ntp628
Rp629
(lp630
F-4.905402183532715
aF2.7151784896850586
aF0.3076878786087036
abag1
(g2
g3
Ntp631
Rp632
(lp633
F-4.879557132720947
aF2.7185821533203125
aF0.30770543217658997
abag1
(g2
g3
Ntp634
Rp635
(lp636
F-4.843113422393799
aF2.7353785037994385
aF0.3077053427696228
abag1
(g2
g3
Ntp637
Rp638
(lp639
F-4.821859359741211
aF2.733691930770874
aF0.3077290654182434
abag1
(g2
g3
Ntp640
Rp641
(lp642
F-4.775164604187012
aF2.764256715774536
aF0.3077102303504944
abag1
(g2
g3
Ntp643
Rp644
(lp645
F-4.731256484985352
aF2.792023181915283
aF0.30769455432891846
abag1
(g2
g3
Ntp646
Rp647
(lp648
F-4.704843997955322
aF2.7980220317840576
aF0.307707279920578
abag1
(g2
g3
Ntp649
Rp650
(lp651
F-4.691361427307129
aF2.7875683307647705
aF0.30774176120758057
abag1
(g2
g3
Ntp652
Rp653
(lp654
F-4.6638593673706055
aF2.7954418659210205
aF0.3077516257762909
abag1
(g2
g3
Ntp655
Rp656
(lp657
F-4.631639003753662
aF2.8098716735839844
aF0.30775243043899536
abag1
(g2
g3
Ntp658
Rp659
(lp660
F-4.597187519073486
aF2.827721357345581
aF0.3077482581138611
abag1
(g2
g3
Ntp661
Rp662
(lp663
F-4.571296215057373
aF2.834582567214966
aF0.30775871872901917
abag1
(g2
g3
Ntp664
Rp665
(lp666
F-4.555006504058838
aF2.828735113143921
aF0.30778631567955017
abag1
(g2
g3
Ntp667
Rp668
(lp669
F-4.512155055999756
aF2.859302043914795
aF0.30776384472846985
abag1
(g2
g3
Ntp670
Rp671
(lp672
F-4.49542236328125
aF2.8545477390289307
aF0.3077895939350128
abag1
(g2
g3
Ntp673
Rp674
(lp675
F-4.473443031311035
aF2.857194423675537
aF0.30780506134033203
abag1
(g2
g3
Ntp676
Rp677
(lp678
F-4.430088520050049
aF2.890129566192627
aF0.30777812004089355
abag1
(g2
g3
Ntp679
Rp680
(lp681
F-4.412403106689453
aF2.88741397857666
aF0.3078005909919739
abag1
(g2
g3
Ntp682
Rp683
(lp684
F-4.3832879066467285
aF2.901196241378784
aF0.3077997863292694
abag1
(g2
g3
Ntp685
Rp686
(lp687
F-4.368552207946777
aF2.8946120738983154
aF0.3078274428844452
abag1
(g2
g3
Ntp688
Rp689
(lp690
F-4.34871244430542
aF2.895524740219116
aF0.3078444302082062
abag1
(g2
g3
Ntp691
Rp692
(lp693
F-4.318811893463135
aF2.911447048187256
aF0.30783993005752563
abag1
(g2
g3
Ntp694
Rp695
(lp696
F-4.286858081817627
aF2.9308929443359375
aF0.3078300952911377
abag1
(g2
g3
Ntp697
Rp698
(lp699
F-4.2617645263671875
aF2.940572500228882
aF0.3078339397907257
abag1
(g2
g3
Ntp700
Rp701
(lp702
F-4.239546775817871
aF2.9462411403656006
aF0.3078433573246002
abag1
(g2
g3
Ntp703
Rp704
(lp705
F-4.226167678833008
aF2.9386534690856934
aF0.3078717887401581
abag1
(g2
g3
Ntp706
Rp707
(lp708
F-4.211130142211914
aF2.933645009994507
aF0.3078964650630951
abag1
(g2
g3
Ntp709
Rp710
(lp711
F-4.173957347869873
aF2.9632279872894287
aF0.30787062644958496
abag1
(g2
g3
Ntp712
Rp713
(lp714
F-4.142440319061279
aF2.984636068344116
aF0.3078562915325165
abag1
(g2
g3
Ntp715
Rp716
(lp717
F-4.128180027008057
aF2.9791743755340576
aF0.3078811764717102
abag1
(g2
g3
Ntp718
Rp719
(lp720
F-4.107035160064697
aF2.984816789627075
aF0.3078896105289459
abag1
(g2
g3
Ntp721
Rp722
(lp723
F-4.082299709320068
aF2.9965462684631348
aF0.3078888952732086
abag1
(g2
g3
Ntp724
Rp725
(lp726
F-4.0655198097229
aF2.9956343173980713
aF0.30790674686431885
abag1
(g2
g3
Ntp727
Rp728
(lp729
F-4.039968490600586
aF3.0093607902526855
aF0.30790266394615173
abag1
(g2
g3
Ntp730
Rp731
(lp732
F-4.020222187042236
aF3.013817310333252
aF0.3079122304916382
abag1
(g2
g3
Ntp733
Rp734
(lp735
F-3.421644926071167
aF3.747389316558838
aF0.3069632351398468
abag1
(g2
g3
Ntp736
Rp737
(lp738
F-3.4063315391540527
aF3.754065752029419
aF0.3069639801979065
abag1
(g2
g3
Ntp739
Rp740
(lp741
F-3.3970329761505127
aF3.7492687702178955
aF0.30698275566101074
abag1
(g2
g3
Ntp742
Rp743
(lp744
F-3.1938016414642334
aF3.918654203414917
aF0.30682551860809326
abag1
(g2
g3
Ntp745
Rp746
(lp747
F-3.1803109645843506
aF3.925731658935547
aF0.30682373046875
abag1
(g2
g3
Ntp748
Rp749
(lp750
F-3.156360149383545
aF3.9566571712493896
aF0.30678248405456543
abag1
(g2
g3
Ntp751
Rp752
(lp753
F-2.9422638416290283
aF4.116140842437744
aF0.3066560924053192
abag1
(g2
g3
Ntp754
Rp755
(lp756
F-2.934549331665039
aF4.113365173339844
aF0.3066691756248474
abag1
(g2
g3
Ntp757
Rp758
(lp759
F-2.9268226623535156
aF4.110623359680176
aF0.3066822290420532
abag1
(g2
g3
Ntp760
Rp761
(lp762
F-2.9352800846099854
aF3.374434232711792
aF0.3081984221935272
abag1
(g2
g3
Ntp763
Rp764
(lp765
F-2.9089407920837402
aF3.4338183403015137
aF0.30810055136680603
abag1
(g2
g3
Ntp766
Rp767
(lp768
F-2.8892734050750732
aF3.4681193828582764
aF0.3080482482910156
abag1
(g2
g3
Ntp769
Rp770
(lp771
F-2.8652775287628174
aF3.521998882293701
aF0.30795952677726746
abag1
(g2
g3
Ntp772
Rp773
(lp774
F-2.854971408843994
aF3.5195648670196533
aF0.3079743981361389
abag1
(g2
g3
Ntp775
Rp776
(lp777
F-2.7602505683898926
aF3.5075442790985107
aF0.3080894351005554
abag1
(g2
g3
Ntp778
Rp779
(lp780
F-2.749882221221924
aF3.505568742752075
aF0.30810341238975525
abag1
(g2
g3
Ntp781
Rp782
(lp783
F-2.7395055294036865
aF3.503638505935669
aF0.3081172704696655
abag1
(g2
g3
Ntp784
Rp785
(lp786
F-2.6325883865356445
aF3.427919864654541
aF0.30837583541870117
abag1
(g2
g3
Ntp787
Rp788
(lp789
F-2.6218738555908203
aF3.426501989364624
aF0.30838897824287415
abag1
(g2
g3
Ntp790
Rp791
(lp792
F-2.5857648849487305
aF2.4073429107666016
aF0.31053346395492554
abag1
(g2
g3
Ntp793
Rp794
(lp795
F-2.5699052810668945
aF2.4151124954223633
aF0.31053248047828674
abag1
(g2
g3
Ntp796
Rp797
(lp798
F-2.553683042526245
aF2.428938388824463
aF0.3105193078517914
abag1
(g2
g3
Ntp799
Rp800
(lp801
F-2.5386104583740234
aF2.4278740882873535
aF0.31053584814071655
abag1
(g2
g3
Ntp802
Rp803
(lp804
F-2.523341655731201
aF2.4298698902130127
aF0.31054624915122986
abag1
(g2
g3
Ntp805
Rp806
(lp807
F-2.507201910018921
aF2.446906566619873
aF0.3105263411998749
abag1
(g2
g3
Ntp808
Rp809
(lp810
F-2.4921529293060303
aF2.4470436573028564
aF0.3105403780937195
abag1
(g2
g3
Ntp811
Rp812
(lp813
F-2.4755334854125977
aF2.4782063961029053
aF0.310491681098938
abag1
(g2
g3
Ntp814
Rp815
(lp816
F-2.4601190090179443
aF2.4894697666168213
aF0.31048303842544556
abag1
(g2
g3
Ntp817
Rp818
(lp819
F-2.4452693462371826
aF2.4898128509521484
aF0.3104964792728424
abag1
(g2
g3
Ntp820
Rp821
(lp822
F-2.430161476135254
aF2.4972152709960938
aF0.310495525598526
abag1
(g2
g3
Ntp823
Rp824
(lp825
F-2.4150538444519043
aF2.5066843032836914
aF0.31049031019210815
abag1
(g2
g3
Ntp826
Rp827
(lp828
F-2.4003219604492188
aF2.5062243938446045
aF0.3105052709579468
abag1
(g2
g3
Ntp829
Rp830
(lp831
F-2.384601354598999
aF2.545816421508789
aF0.31043827533721924
abag1
(g2
g3
Ntp832
Rp833
(lp834
F-2.3698577880859375
aF2.5544872283935547
aF0.31043434143066406
abag1
(g2
g3
Ntp835
Rp836
(lp837
F-2.3552072048187256
aF2.562222957611084
aF0.3104322850704193
abag1
(g2
g3
Ntp838
Rp839
(lp840
F-2.3406949043273926
aF2.564023733139038
aF0.31044235825538635
abag1
(g2
g3
Ntp841
Rp842
(lp843
F-2.3261773586273193
aF2.568887710571289
aF0.3104461133480072
abag1
(g2
g3
Ntp844
Rp845
(lp846
F-2.3116209506988525
aF2.6028146743774414
aF0.3103897273540497
abag1
(g2
g3
Ntp847
Rp848
(lp849
F-2.2973155975341797
aF2.6068053245544434
aF0.31039509177207947
abag1
(g2
g3
Ntp850
Rp851
(lp852
F-2.2830564975738525
aF2.612858295440674
aF0.31039613485336304
abag1
(g2
g3
Ntp853
Rp854
(lp855
F-2.2688400745391846
aF2.6179726123809814
aF0.3103990852832794
abag1
(g2
g3
Ntp856
Rp857
(lp858
F-2.254828929901123
aF2.634148120880127
aF0.31037890911102295
abag1
(g2
g3
Ntp859
Rp860
(lp861
F-2.2407302856445312
aF2.638385772705078
aF0.31038355827331543
abag1
(g2
g3
Ntp862
Rp863
(lp864
F-2.226691246032715
aF2.643683671951294
aF0.31038597226142883
abag1
(g2
g3
Ntp865
Rp866
(lp867
F-2.2128355503082275
aF2.654040575027466
aF0.31037771701812744
abag1
(g2
g3
Ntp868
Rp869
(lp870
F-2.199004888534546
aF2.6624577045440674
aF0.310373455286026
abag1
(g2
g3
Ntp871
Rp872
(lp873
F-2.1853187084198
aF2.6729323863983154
aF0.3103647828102112
abag1
(g2
g3
Ntp874
Rp875
(lp876
F-2.171640157699585
aF2.681466579437256
aF0.3103601336479187
abag1
(g2
g3
Ntp877
Rp878
(lp879
F-2.157853603363037
aF2.686063051223755
aF0.3103637397289276
abag1
(g2
g3
Ntp880
Rp881
(lp882
F-2.1447479724884033
aF2.703702688217163
aF0.31033971905708313
abag1
(g2
g3
Ntp883
Rp884
(lp885
F-2.131632089614868
aF2.718400239944458
aF0.31032177805900574
abag1
(g2
g3
Ntp886
Rp887
(lp888
F-2.118117332458496
aF2.7241663932800293
aF0.31032270193099976
abag1
(g2
g3
Ntp889
Rp890
(lp891
F-2.104337215423584
aF2.7250001430511475
aF0.31033408641815186
abag1
(g2
g3
Ntp892
Rp893
(lp894
F-2.0905606746673584
aF2.725893974304199
aF0.3103453516960144
abag1
(g2
g3
Ntp895
Rp896
(lp897
F-2.0767881870269775
aF2.7268478870391846
aF0.3103564977645874
abag1
(g2
g3
Ntp898
Rp899
(lp900
F-2.0633978843688965
aF2.7328476905822754
aF0.3103567957878113
abag1
(g2
g3
Ntp901
Rp902
(lp903
F-2.0506956577301025
aF2.7468783855438232
aF0.3103398382663727
abag1
(g2
g3
Ntp904
Rp905
(lp906
F-2.038027048110962
aF2.759963274002075
aF0.3103248178958893
abag1
(g2
g3
Ntp907
Rp908
(lp909
F-2.024580717086792
aF2.7631380558013916
aF0.3103310465812683
abag1
(g2
g3
Ntp910
Rp911
(lp912
F-2.0124597549438477
aF2.7803101539611816
aF0.31030702590942383
abag1
(g2
g3
Ntp913
Rp914
(lp915
F-2.0001909732818604
aF2.7945427894592285
aF0.3102892339229584
abag1
(g2
g3
Ntp916
Rp917
(lp918
F-1.9871256351470947
aF2.7998695373535156
aF0.310290664434433
abag1
(g2
g3
Ntp919
Rp920
(lp921
F-1.9736766815185547
aF2.801273822784424
aF0.3103005588054657
abag1
(g2
g3
Ntp922
Rp923
(lp924
F-1.9618898630142212
aF2.817645311355591
aF0.31027787923812866
abag1
(g2
g3
Ntp925
Rp926
(lp927
F-1.948518991470337
aF2.819159984588623
aF0.3102874755859375
abag1
(g2
g3
Ntp928
Rp929
(lp930
F-1.935987949371338
aF2.8276829719543457
aF0.31028175354003906
abag1
(g2
g3
Ntp931
Rp932
(lp933
F-1.9232778549194336
aF2.8342721462249756
aF0.3102802038192749
abag1
(g2
g3
Ntp934
Rp935
(lp936
F-1.9101076126098633
aF2.836946487426758
aF0.310287207365036
abag1
(g2
g3
Ntp937
Rp938
(lp939
F-1.8995940685272217
aF2.8595032691955566
aF0.31025052070617676
abag1
(g2
g3
Ntp940
Rp941
(lp942
F-1.8877699375152588
aF2.8711955547332764
aF0.3102375566959381
abag1
(g2
g3
Ntp943
Rp944
(lp945
F-1.875195860862732
aF2.876993179321289
aF0.3102375268936157
abag1
(g2
g3
Ntp946
Rp947
(lp948
F-1.8639696836471558
aF2.8917479515075684
aF0.31021764874458313
abag1
(g2
g3
Ntp949
Rp950
(lp951
F-1.8518189191818237
aF2.8996217250823975
aF0.3102129399776459
abag1
(g2
g3
Ntp952
Rp953
(lp954
F-1.839267373085022
aF2.9045798778533936
aF0.3102146089076996
abag1
(g2
g3
Ntp955
Rp956
(lp957
F-1.827540397644043
aF2.9145283699035645
aF0.3102051615715027
abag1
(g2
g3
Ntp958
Rp959
(lp960
F-1.8147556781768799
aF2.917614698410034
aF0.3102109432220459
abag1
(g2
g3
Ntp961
Rp962
(lp963
F-1.801822304725647
aF2.9197702407836914
aF0.31021881103515625
abag1
(g2
g3
Ntp964
Rp965
(lp966
F-1.7887276411056519
aF2.920996904373169
aF0.31022873520851135
abag1
(g2
g3
Ntp967
Rp968
(lp969
F-1.7758092880249023
aF2.9232659339904785
aF0.3102363348007202
abag1
(g2
g3
Ntp970
Rp971
(lp972
F-1.763080358505249
aF2.926575183868408
aF0.31024160981178284
abag1
(g2
g3
Ntp973
Rp974
(lp975
F-1.7516562938690186
aF2.9368197917938232
aF0.3102312684059143
abag1
(g2
g3
Ntp976
Rp977
(lp978
F-1.7391834259033203
aF2.9412150382995605
aF0.31023404002189636
abag1
(g2
g3
Ntp979
Rp980
(lp981
F-1.7263537645339966
aF2.943699836730957
aF0.31024110317230225
abag1
(g2
g3
Ntp982
Rp983
(lp984
F-1.713534951210022
aF2.9462409019470215
aF0.3102480471134186
abag1
(g2
g3
Ntp985
Rp986
(lp987
F-1.6943001747131348
aF2.917490005493164
aF0.31032589077949524
abag1
(g2
g3
Ntp988
Rp989
(lp990
F-1.6776750087738037
aF2.9025537967681885
aF0.31037265062332153
abag1
(g2
g3
Ntp991
Rp992
(lp993
F-1.6577671766281128
aF2.8730392456054688
aF0.3104526996612549
abag1
(g2
g3
Ntp994
Rp995
(lp996
F-1.643572449684143
aF2.8709957599639893
aF0.31047043204307556
abag1
(g2
g3
Ntp997
Rp998
(lp999
F-1.6230278015136719
aF2.8407156467437744
aF0.3105526864528656
abag1
(g2
g3
Ntp1000
Rp1001
(lp1002
F-1.6073168516159058
aF2.8329837322235107
aF0.3105836510658264
abag1
(g2
g3
Ntp1003
Rp1004
(lp1005
F-1.586317539215088
aF2.8029282093048096
aF0.31066587567329407
abag1
(g2
g3
Ntp1006
Rp1007
(lp1008
F-1.5671188831329346
aF2.7817559242248535
aF0.31072798371315
abag1
(g2
g3
Ntp1009
Rp1010
(lp1011
F-1.5474870204925537
aF2.759720802307129
aF0.31079229712486267
abag1
(g2
g3
Ntp1012
Rp1013
(lp1014
F-1.5314757823944092
aF2.7533342838287354
aF0.3108207583427429
abag1
(g2
g3
Ntp1015
Rp1016
(lp1017
F-1.5119868516921997
aF2.7334492206573486
aF0.31088048219680786
abag1
(g2
g3
Ntp1018
Rp1019
(lp1020
F-1.4982527494430542
aF2.7369277477264404
aF0.31088635325431824
abag1
(g2
g3
Ntp1021
Rp1022
(lp1023
F-1.4764747619628906
aF2.7094972133636475
aF0.310963898897171
abag1
(g2
g3
Ntp1024
Rp1025
(lp1026
F-1.4506012201309204
aF2.6676981449127197
aF0.3110750615596771
abag1
(g2
g3
Ntp1027
Rp1028
(lp1029
F-1.433457374572754
aF2.659858465194702
aF0.3111076056957245
abag1
(g2
g3
Ntp1030
Rp1031
(lp1032
F-1.4106745719909668
aF2.6318554878234863
aF0.3111872971057892
abag1
(g2
g3
Ntp1033
Rp1034
(lp1035
F-1.396498203277588
aF2.6357767581939697
aF0.31119266152381897
abag1
(g2
g3
Ntp1036
Rp1037
(lp1038
F-1.3686939477920532
aF2.591658115386963
aF0.31131047010421753
abag1
(g2
g3
Ntp1039
Rp1040
(lp1041
F-1.3496320247650146
aF2.5794289112091064
aF0.3113539516925812
abag1
(g2
g3
Ntp1042
Rp1043
(lp1044
F-1.335227370262146
aF2.5836169719696045
aF0.3113589882850647
abag1
(g2
g3
Ntp1045
Rp1046
(lp1047
F-1.305425763130188
aF2.5361151695251465
aF0.3114857077598572
abag1
(g2
g3
Ntp1048
Rp1049
(lp1050
F-1.2838809490203857
aF2.5175256729125977
aF0.3115447163581848
abag1
(g2
g3
Ntp1051
Rp1052
(lp1053
F-1.2627428770065308
aF2.500972270965576
aF0.31159910559654236
abag1
(g2
g3
Ntp1054
Rp1055
(lp1056
F-1.2354811429977417
aF2.4654488563537598
aF0.3116986155509949
abag1
(g2
g3
Ntp1057
Rp1058
(lp1059
F-1.2148394584655762
aF2.452024459838867
aF0.3117460608482361
abag1
(g2
g3
Ntp1060
Rp1061
(lp1062
F-1.1916097402572632
aF2.4310998916625977
aF0.3118114769458771
abag1
(g2
g3
Ntp1063
Rp1064
(lp1065
F-1.1681771278381348
aF2.410313129425049
aF0.3118768334388733
abag1
(g2
g3
Ntp1066
Rp1067
(lp1068
F-1.142969012260437
aF2.3849198818206787
aF0.3119533956050873
abag1
(g2
g3
Ntp1069
Rp1070
(lp1071
F-1.117199182510376
aF2.3587329387664795
aF0.31203216314315796
abag1
(g2
g3
Ntp1072
Rp1073
(lp1074
F-1.0895644426345825
aF2.327972650527954
aF0.3121221363544464
abag1
(g2
g3
Ntp1075
Rp1076
(lp1077
F-1.0622930526733398
aF2.2992773056030273
aF0.31220752000808716
abag1
(g2
g3
Ntp1078
Rp1079
(lp1080
F-1.039384126663208
aF2.283963203430176
aF0.31226104497909546
abag1
(g2
g3
Ntp1081
Rp1082
(lp1083
F-1.0039142370224
aF2.233922243118286
aF0.31239840388298035
abag1
(g2
g3
Ntp1084
Rp1085
(lp1086
F-0.9730741381645203
aF2.198233127593994
aF0.3125016689300537
abag1
(g2
g3
Ntp1087
Rp1088
(lp1089
F-1.035575270652771
aF2.837769031524658
aF0.3111180365085602
abag1
(g2
g3
Ntp1090
Rp1091
(lp1092
F-1.0223009586334229
aF2.843325138092041
aF0.3111191689968109
abag1
(g2
g3
Ntp1093
Rp1094
(lp1095
F-1.0090508460998535
aF2.8489389419555664
aF0.3111201524734497
abag1
(g2
g3
Ntp1096
Rp1097
(lp1098
F-1.8280460834503174
aF5.080478191375732
aF0.30572018027305603
abag1
(g2
g3
Ntp1099
Rp1100
(lp1101
F-1.824549913406372
aF5.082554817199707
aF0.3057192265987396
abag1
(g2
g3
Ntp1102
Rp1103
(lp1104
F-1.821062684059143
aF5.084647178649902
aF0.30571821331977844
abag1
(g2
g3
Ntp1105
Rp1106
(lp1107
F-0.7462228536605835
aF3.6469967365264893
aF0.3097180128097534
abag1
(g2
g3
Ntp1108
Rp1109
(lp1110
F-0.7364821434020996
aF3.6538076400756836
aF0.3097131848335266
abag1
(g2
g3
Ntp1111
Rp1112
(lp1113
F-0.7273496985435486
aF3.6614768505096436
aF0.3097060024738312
abag1
(g2
g3
Ntp1114
Rp1115
(lp1116
F-1.9794254302978516
aF5.495789527893066
aF0.30471619963645935
abag1
(g2
g3
Ntp1117
Rp1118
(lp1119
F-1.977739930152893
aF5.497201919555664
aF0.3047148585319519
abag1
(g2
g3
Ntp1120
Rp1121
(lp1122
F-1.9760605096817017
aF5.498621940612793
aF0.30471351742744446
abag1
(g2
g3
Ntp1123
Rp1124
(lp1125
F-0.7024365663528442
aF4.273818492889404
aF0.30846190452575684
abag1
(g2
g3
Ntp1126
Rp1127
(lp1128
F-0.6918905377388
aF4.277284145355225
aF0.30846476554870605
abag1
(g2
g3
Ntp1129
Rp1130
(lp1131
F-0.9951089024543762
aF4.729836940765381
aF0.3072391152381897
abag1
(g2
g3
Ntp1132
Rp1133
(lp1134
F-1.0149343013763428
aF4.757271766662598
aF0.30716341733932495
abag1
(g2
g3
Ntp1135
Rp1136
(lp1137
F-1.020615577697754
aF4.772068500518799
aF0.3071273863315582
abag1
(g2
g3
Ntp1138
Rp1139
(lp1140
F-1.0188153982162476
aF4.780277729034424
aF0.30711209774017334
abag1
(g2
g3
Ntp1141
Rp1142
(lp1143
F-1.0140169858932495
aF4.785888671875
aF0.30710506439208984
abag1
(g2
g3
Ntp1144
Rp1145
(lp1146
F-1.0107715129852295
aF4.792809963226318
aF0.3070938289165497
abag1
(g2
g3
Ntp1147
Rp1148
(lp1149
F-1.0075619220733643
aF4.799738883972168
aF0.30708253383636475
abag1
(g2
g3
Ntp1150
Rp1151
(lp1152
F-1.001308798789978
aF4.804121971130371
aF0.30707940459251404
abag1
(g2
g3
Ntp1153
Rp1154
(lp1155
F-0.9950694441795349
aF4.808538913726807
aF0.30707618594169617
abag1
(g2
g3
Ntp1156
Rp1157
(lp1158
F-0.9903945922851562
aF4.814253330230713
aF0.3070688247680664
abag1
(g2
g3
Ntp1159
Rp1160
(lp1161
F-0.9849666357040405
aF4.819359302520752
aF0.30706340074539185
abag1
(g2
g3
Ntp1162
Rp1163
(lp1164
F-0.9787773489952087
aF4.8238677978515625
aF0.30705997347831726
abag1
(g2
g3
Ntp1165
Rp1166
(lp1167
F-0.9733859896659851
aF4.829031467437744
aF0.30705440044403076
abag1
(g2
g3
Ntp1168
Rp1169
(lp1170
F-0.9648694396018982
aF4.831750392913818
aF0.30705687403678894
abag1
(g2
g3
Ntp1171
Rp1172
(lp1173
F-0.957929253578186
aF4.835752487182617
aF0.30705520510673523
abag1
(g2
g3
Ntp1174
Rp1175
(lp1176
F-0.9533734917640686
aF4.841628551483154
aF0.30704736709594727
abag1
(g2
g3
Ntp1177
Rp1178
(lp1179
F-0.9393120408058167
aF4.84023380279541
aF0.30706363916397095
abag1
(g2
g3
Ntp1180
Rp1181
(lp1182
F-0.8907412886619568
aF4.915821075439453
aF0.30695340037345886
abag1
(g2
g3
Ntp1183
Rp1184
(lp1185
F-0.8890178203582764
aF4.923673629760742
aF0.3069387674331665
abag1
(g2
g3
Ntp1186
Rp1187
(lp1188
F-0.8989543318748474
aF4.939334392547607
aF0.3068968951702118
abag1
(g2
g3
Ntp1189
Rp1190
(lp1191
F-0.8981803059577942
aF4.947683811187744
aF0.30688032507896423
abag1
(g2
g3
Ntp1192
Rp1193
(lp1194
F-0.8991218209266663
aF4.957123279571533
aF0.30685991048812866
abag1
(g2
g3
Ntp1195
Rp1196
(lp1197
F-0.9026301503181458
aF4.968177318572998
aF0.3068336844444275
abag1
(g2
g3
Ntp1198
Rp1199
(lp1200
F-0.9045292735099792
aF4.978096961975098
aF0.3068113327026367
abag1
(g2
g3
Ntp1201
Rp1202
(lp1203
F-0.9022787809371948
aF4.985283851623535
aF0.3067985773086548
abag1
(g2
g3
Ntp1204
Rp1205
(lp1206
F-0.9076622724533081
aF4.997297286987305
aF0.30676859617233276
abag1
(g2
g3
Ntp1207
Rp1208
(lp1209
F-0.9038118124008179
aF5.003390789031982
aF0.30675962567329407
abag1
(g2
g3
Ntp1210
Rp1211
(lp1212
F-0.899988055229187
aF5.0095014572143555
aF0.306750625371933
abag1
(g2
g3
Ntp1213
Rp1214
(lp1215
F-0.8902328014373779
aF5.011953830718994
aF0.30675482749938965
abag1
(g2
g3
Ntp1216
Rp1217
(lp1218
F-0.886446475982666
aF5.018123149871826
aF0.3067456781864166
abag1
(g2
g3
Ntp1219
Rp1220
(lp1221
F-1.5906740427017212
aF5.493794918060303
aF0.30509039759635925
abag1
(g2
g3
Ntp1222
Rp1223
(lp1224
F-1.588983416557312
aF5.496903896331787
aF0.30508556962013245
abag1
(g2
g3
Ntp1225
Rp1226
(lp1227
F-1.5873064994812012
aF5.5000200271606445
aF0.30508071184158325
abag1
(g2
g3
Ntp1228
Rp1229
(lp1230
F-1.5856431722640991
aF5.503143310546875
aF0.30507582426071167
abag1
(g2
g3
Ntp1231
Rp1232
(lp1233
F-1.5848790407180786
aF5.506738185882568
aF0.30506911873817444
abag1
(g2
g3
Ntp1234
Rp1235
(lp1236
F-1.5947853326797485
aF5.515857219696045
aF0.30504080653190613
abag1
(g2
g3
Ntp1237
Rp1238
(lp1239
F-1.5931909084320068
aF5.518947601318359
aF0.30503591895103455
abag1
(g2
g3
Ntp1240
Rp1241
(lp1242
F-1.591610074043274
aF5.522045135498047
aF0.30503103137016296
abag1
(g2
g3
Ntp1243
Rp1244
(lp1245
F-1.5775315761566162
aF5.518867015838623
aF0.3050509989261627
abag1
(g2
g3
Ntp1246
Rp1247
(lp1248
F-1.5759505033493042
aF5.522033214569092
aF0.3050459623336792
abag1
(g2
g3
Ntp1249
Rp1250
(lp1251
F-1.5683326721191406
aF5.526200294494629
aF0.305044561624527
abag1
(g2
g3
Ntp1252
Rp1253
(lp1254
F2.631103515625
aF3.7975428104400635
aF0.31262144446372986
abag1
(g2
g3
Ntp1255
Rp1256
(lp1257
F2.641077995300293
aF3.8187031745910645
aF0.3125871419906616
abag1
(g2
g3
Ntp1258
Rp1259
(lp1260
F2.652811050415039
aF3.8391482830047607
aF0.3125559687614441
abag1
(g2
g3
Ntp1261
Rp1262
(lp1263
F2.6820552349090576
aF3.8524892330169678
aF0.3125561773777008
abag1
(g2
g3
Ntp1264
Rp1265
(lp1266
F2.6908669471740723
aF3.8742566108703613
aF0.31251952052116394
abag1
(g2
g3
Ntp1267
Rp1268
(lp1269
F2.7060885429382324
aF3.8934786319732666
aF0.3124941885471344
abag1
(g2
g3
Ntp1270
Rp1271
(lp1272
F2.727754592895508
aF3.9102394580841064
aF0.3124801218509674
abag1
(g2
g3
Ntp1273
Rp1274
(lp1275
F2.7465717792510986
aF3.928234577178955
aF0.3124607801437378
abag1
(g2
g3
Ntp1276
Rp1277
(lp1278
F2.755052089691162
aF3.9502830505371094
aF0.3124231994152069
abag1
(g2
g3
Ntp1279
Rp1280
(lp1281
F2.762500762939453
aF3.9727210998535156
aF0.31238383054733276
abag1
(g2
g3
Ntp1282
Rp1283
(lp1284
F2.770786762237549
aF3.994838237762451
aF0.3123459219932556
abag1
(g2
g3
Ntp1285
Rp1286
(lp1287
F2.804321527481079
aF4.00768518447876
aF0.312351256608963
abag1
(g2
g3
Ntp1288
Rp1289
(lp1290
F2.8303186893463135
aF4.023513317108154
aF0.3123432397842407
abag1
(g2
g3
Ntp1291
Rp1292
(lp1293
F2.8383827209472656
aF4.045926094055176
aF0.3123044967651367
abag1
(g2
g3
Ntp1294
Rp1295
(lp1296
F2.849177598953247
aF4.067377090454102
aF0.3122703731060028
abag1
(g2
g3
Ntp1297
Rp1298
(lp1299
F2.8693294525146484
aF4.085604667663574
aF0.3122518062591553
abag1
(g2
g3
Ntp1300
Rp1301
(lp1302
F2.892258644104004
aF4.103001117706299
aF0.31223762035369873
abag1
(g2
g3
Ntp1303
Rp1304
(lp1305
F2.906606912612915
aF4.123443126678467
aF0.31220895051956177
abag1
(g2
g3
Ntp1306
Rp1307
(lp1308
F2.929414749145508
aF4.141134262084961
aF0.3121940493583679
abag1
(g2
g3
Ntp1309
Rp1310
(lp1311
F2.9388647079467773
aF4.163354873657227
aF0.3121570348739624
abag1
(g2
g3
Ntp1312
Rp1313
(lp1314
F2.9510748386383057
aF4.184701919555664
aF0.31212446093559265
abag1
(g2
g3
Ntp1315
Rp1316
(lp1317
F2.964151382446289
aF4.205820083618164
aF0.31209316849708557
abag1
(g2
g3
Ntp1318
Rp1319
(lp1320
F2.988593578338623
aF4.223428249359131
aF0.3120799958705902
abag1
(g2
g3
Ntp1321
Rp1322
(lp1323
F3.006294012069702
aF4.243283748626709
aF0.3120557367801666
abag1
(g2
g3
Ntp1324
Rp1325
(lp1326
F3.0229647159576416
aF4.263553142547607
aF0.312029629945755
abag1
(g2
g3
Ntp1327
Rp1328
(lp1329
F3.0328528881073
aF4.285943984985352
aF0.31199267506599426
abag1
(g2
g3
Ntp1330
Rp1331
(lp1332
F3.0397696495056152
aF4.309237957000732
aF0.31195104122161865
abag1
(g2
g3
Ntp1333
Rp1334
(lp1335
F3.5700199604034424
aF4.318882465362549
aF0.3124358654022217
abag1
(g2
g3
Ntp1336
Rp1337
(lp1338
F3.5177743434906006
aF4.359961032867432
aF0.31230106949806213
abag1
(g2
g3
Ntp1339
Rp1340
(lp1341
F3.5834438800811768
aF4.370186805725098
aF0.31234240531921387
abag1
(g2
g3
Ntp1342
Rp1343
(lp1344
F2.2565865516662598
aF4.879387855529785
aF0.31002500653266907
abag1
(g2
g3
Ntp1345
Rp1346
(lp1347
F2.2599432468414307
aF4.899499893188477
aF0.30998656153678894
abag1
(g2
g3
Ntp1348
Rp1349
(lp1350
F2.264190196990967
aF4.919415473937988
aF0.3099493682384491
abag1
(g2
g3
Ntp1351
Rp1352
(lp1353
F2.26835036277771
aF4.93934965133667
aF0.3099120557308197
abag1
(g2
g3
Ntp1354
Rp1355
(lp1356
F2.2067484855651855
aF4.972559928894043
aF0.3097846508026123
abag1
(g2
g3
Ntp1357
Rp1358
(lp1359
F2.187131643295288
aF4.996889114379883
aF0.30971559882164
abag1
(g2
g3
Ntp1360
Rp1361
(lp1362
F2.162478446960449
aF5.021976470947266
aF0.30964019894599915
abag1
(g2
g3
Ntp1363
Rp1364
(lp1365
F2.1357274055480957
aF5.047201633453369
aF0.3095625042915344
abag1
(g2
g3
Ntp1366
Rp1367
(lp1368
F2.1167101860046387
aF5.070730686187744
aF0.3094956874847412
abag1
(g2
g3
Ntp1369
Rp1370
(lp1371
F2.077885866165161
aF5.097607612609863
aF0.30940306186676025
abag1
(g2
g3
Ntp1372
Rp1373
(lp1374
F2.0812699794769287
aF5.116726875305176
aF0.30936670303344727
abag1
(g2
g3
Ntp1375
Rp1376
(lp1377
F2.066826820373535
aF5.138882160186768
aF0.3093070983886719
abag1
(g2
g3
Ntp1378
Rp1379
(lp1380
F2.0285964012145996
aF5.164822101593018
aF0.3092169761657715
abag1
(g2
g3
Ntp1381
Rp1382
(lp1383
F1.9902241230010986
aF5.190413951873779
aF0.30912747979164124
abag1
(g2
g3
Ntp1384
Rp1385
(lp1386
F1.95072340965271
aF5.2158122062683105
aF0.3090372681617737
abag1
(g2
g3
Ntp1387
Rp1388
(lp1389
F1.945684552192688
aF5.235580921173096
aF0.30899155139923096
abag1
(g2
g3
Ntp1390
Rp1391
(lp1392
F1.9435218572616577
aF5.25485372543335
aF0.3089495897293091
abag1
(g2
g3
Ntp1393
Rp1394
(lp1395
F1.9076164960861206
aF5.278923034667969
aF0.30886557698249817
abag1
(g2
g3
Ntp1396
Rp1397
(lp1398
F1.8804970979690552
aF5.301427841186523
aF0.30879315733909607
abag1
(g2
g3
Ntp1399
Rp1400
(lp1401
F1.8829940557479858
aF5.319684028625488
aF0.3087577223777771
abag1
(g2
g3
Ntp1402
Rp1403
(lp1404
F1.8516956567764282
aF5.342337608337402
aF0.30868104100227356
abag1
(g2
g3
Ntp1405
Rp1406
(lp1407
F1.8163108825683594
aF5.365206241607666
aF0.3086000084877014
abag1
(g2
g3
Ntp1408
Rp1409
(lp1410
F1.8086024522781372
aF5.384385108947754
aF0.30855295062065125
abag1
(g2
g3
Ntp1411
Rp1412
(lp1413
F1.7978259325027466
aF5.403835773468018
aF0.3085024356842041
abag1
(g2
g3
Ntp1414
Rp1415
(lp1416
F1.798883080482483
aF5.421841621398926
aF0.3084661662578583
abag1
(g2
g3
Ntp1417
Rp1418
(lp1419
F1.7541271448135376
aF5.444786548614502
aF0.3083760440349579
abag1
(g2
g3
Ntp1420
Rp1421
(lp1422
F1.7321277856826782
aF5.464962482452393
aF0.3083133101463318
abag1
(g2
g3
Ntp1423
Rp1424
(lp1425
F1.694107174873352
aF5.486516952514648
aF0.30823248624801636
abag1
(g2
g3
Ntp1426
Rp1427
(lp1428
F1.6818608045578003
aF5.505278587341309
aF0.3081820011138916
abag1
(g2
g3
Ntp1429
Rp1430
(lp1431
F1.6794865131378174
aF5.523026466369629
aF0.3081429898738861
abag1
(g2
g3
Ntp1432
Rp1433
(lp1434
F1.681018352508545
aF5.540403842926025
aF0.30810847878456116
abag1
(g2
g3
Ntp1435
Rp1436
(lp1437
F1.6864612102508545
aF5.557461738586426
aF0.3080783188343048
abag1
(g2
g3
Ntp1438
Rp1439
(lp1440
F1.6878427267074585
aF5.574869155883789
aF0.30804359912872314
abag1
(g2
g3
Ntp1441
Rp1442
(lp1443
F1.7160770893096924
aF5.590322017669678
aF0.30803850293159485
abag1
(g2
g3
Ntp1444
Rp1445
(lp1446
F1.7173150777816772
aF5.607858657836914
aF0.30800336599349976
abag1
(g2
g3
Ntp1447
Rp1448
(lp1449
F1.7274583578109741
aF5.6248250007629395
aF0.3079778850078583
abag1
(g2
g3
Ntp1450
Rp1451
(lp1452
F1.7674764394760132
aF5.6400885581970215
aF0.3079843819141388
abag1
(g2
g3
Ntp1453
Rp1454
(lp1455
F1.7734887599945068
aF5.6575727462768555
aF0.3079538941383362
abag1
(g2
g3
Ntp1456
Rp1457
(lp1458
F1.8083890676498413
aF5.673631191253662
aF0.3079538941383362
abag1
(g2
g3
Ntp1459
Rp1460
(lp1461
F1.810261607170105
aF5.691522598266602
aF0.30791860818862915
abag1
(g2
g3
Ntp1462
Rp1463
(lp1464
F1.817051887512207
aF5.709216117858887
aF0.3078884482383728
abag1
(g2
g3
Ntp1465
Rp1466
(lp1467
F1.845749855041504
aF5.726134777069092
aF0.3078807294368744
abag1
(g2
g3
Ntp1468
Rp1469
(lp1470
F1.8603861331939697
aF5.743768215179443
aF0.3078581690788269
abag1
(g2
g3
Ntp1471
Rp1472
(lp1473
F1.8609532117843628
aF5.761932373046875
aF0.3078210949897766
abag1
(g2
g3
Ntp1474
Rp1475
(lp1476
F1.8904318809509277
aF5.779384136199951
aF0.30781301856040955
abag1
(g2
g3
Ntp1477
Rp1478
(lp1479
F1.9128390550613403
aF5.7972331047058105
aF0.3077974021434784
abag1
(g2
g3
Ntp1480
Rp1481
(lp1482
F1.9141721725463867
aF5.815609455108643
aF0.307760626077652
abag1
(g2
g3
Ntp1483
Rp1484
(lp1485
F1.9444233179092407
aF5.83366060256958
aF0.3077520430088043
abag1
(g2
g3
Ntp1486
Rp1487
(lp1488
F1.9745961427688599
aF5.851974964141846
aF0.3077428638935089
abag1
(g2
g3
Ntp1489
Rp1490
(lp1491
F1.9746900796890259
aF5.870636463165283
aF0.30770429968833923
abag1
(g2
g3
Ntp1492
Rp1493
(lp1494
F1.9747023582458496
aF5.889298439025879
aF0.3076656758785248
abag1
(g2
g3
Ntp1495
Rp1496
(lp1497
F1.9746334552764893
aF5.907959938049316
aF0.30762696266174316
abag1
(g2
g3
Ntp1498
Rp1499
(lp1500
F1.155685544013977
aF6.236306190490723
aF0.30616751313209534
abag1
(g2
g3
Ntp1501
Rp1502
(lp1503
F1.1541101932525635
aF6.251391410827637
aF0.30613479018211365
abag1
(g2
g3
Ntp1504
Rp1505
(lp1506
F1.1524690389633179
aF6.2664690017700195
aF0.3061020076274872
abag1
(g2
g3
Ntp1507
Rp1508
(lp1509
F1.1507619619369507
aF6.281539440155029
aF0.30606919527053833
abag1
(g2
g3
Ntp1510
Rp1511
(lp1512
F1.1489893198013306
aF6.296602249145508
aF0.3060363233089447
abag1
(g2
g3
Ntp1513
Rp1514
(lp1515
F1.3233540058135986
aF6.495187282562256
aF0.30579113960266113
abag1
(g2
g3
Ntp1516
Rp1517
(lp1518
F6.675853729248047
aF8.011277198791504
aF0.30774757266044617
abag1
(g2
g3
Ntp1519
Rp1520
(lp1521
F6.738409519195557
aF8.067815780639648
aF0.3076900839805603
abag1
(g2
g3
Ntp1522
Rp1523
(lp1524
F6.728789806365967
aF8.1072416305542
aF0.307599276304245
abag1
(g2
g3
Ntp1525
Rp1526
(lp1527
F0.6064134836196899
aF6.749203205108643
aF0.30458271503448486
abag1
(g2
g3
Ntp1528
Rp1529
(lp1530
F0.5872911810874939
aF6.757252216339111
aF0.30454784631729126
abag1
(g2
g3
Ntp1531
Rp1532
(lp1533
F0.5834482908248901
aF6.769852161407471
aF0.30451807379722595
abag1
(g2
g3
Ntp1534
Rp1535
(lp1536
F0.5948233604431152
aF6.787202835083008
aF0.3044929802417755
abag1
(g2
g3
Ntp1537
Rp1538
(lp1539
F0.5294551253318787
aF6.932373046875
aF0.3041301965713501
abag1
(g2
g3
Ntp1540
Rp1541
(lp1542
F0.5248486399650574
aF6.944718837738037
aF0.30410024523735046
abag1
(g2
g3
Ntp1543
Rp1544
(lp1545
F0.5201880931854248
aF6.95704460144043
aF0.30407029390335083
abag1
(g2
g3
Ntp1546
Rp1547
(lp1548
F0.45748549699783325
aF7.1165547370910645
aF0.30368033051490784
abag1
(g2
g3
Ntp1549
Rp1550
(lp1551
F0.4520759582519531
aF7.128584861755371
aF0.30365028977394104
abag1
(g2
g3
Ntp1552
Rp1553
(lp1554
F0.44661393761634827
aF7.140591144561768
aF0.30362021923065186
abag1
(g2
g3
Ntp1555
Rp1556
(lp1557
F0.1997225433588028
aF7.218019485473633
aF0.3032248914241791
abag1
(g2
g3
Ntp1558
Rp1559
(lp1560
F0.19387274980545044
aF7.228923320770264
aF0.3031967282295227
abag1
(g2
g3
Ntp1561
Rp1562
(lp1563
F0.19763430953025818
aF7.245065689086914
aF0.3031668961048126
abag1
(g2
g3
Ntp1564
Rp1565
(lp1566
F0.19867457449436188
aF7.259819030761719
aF0.30313733220100403
abag1
(g2
g3
Ntp1567
Rp1568
(lp1569
F0.19264258444309235
aF7.270718574523926
aF0.3031090199947357
abag1
(g2
g3
Ntp1570
Rp1571
(lp1572
F0.18656286597251892
aF7.281591415405273
aF0.3030807375907898
abag1
(g2
g3
Ntp1573
Rp1574
(lp1575
F0.18130521476268768
aF7.29293155670166
aF0.30305224657058716
abag1
(g2
g3
Ntp1576
Rp1577
(lp1578
F0.18467077612876892
aF7.309227466583252
aF0.30302169919013977
abag1
(g2
g3
Ntp1579
Rp1580
(lp1581
F-0.312962144613266
aF7.470118045806885
aF0.3022148609161377
abag1
(g2
g3
Ntp1582
Rp1583
(lp1584
F-0.31990712881088257
aF7.478782653808594
aF0.30219030380249023
abag1
(g2
g3
Ntp1585
Rp1586
(lp1587
F-0.32688963413238525
aF7.487417221069336
aF0.30216577649116516
abag1
(g2
g3
Ntp1588
Rp1589
(lp1590
F-0.9216983318328857
aF7.208448886871338
aF0.3021771311759949
abag1
(g2
g3
Ntp1591
Rp1592
(lp1593
F-0.9274957776069641
aF7.2144598960876465
aF0.3021591603755951
abag1
(g2
g3
Ntp1594
Rp1595
(lp1596
F-0.9333192706108093
aF7.2204461097717285
aF0.3021412193775177
abag1
(g2
g3
Ntp1597
Rp1598
(lp1599
F-0.6255293488502502
aF7.734407424926758
aF0.3013700842857361
abag1
(g2
g3
Ntp1600
Rp1601
(lp1602
F-0.6336244940757751
aF7.741705894470215
aF0.3013472855091095
abag1
(g2
g3
Ntp1603
Rp1604
(lp1605
F-0.641751229763031
aF7.748969078063965
aF0.3013245165348053
abag1
(g2
g3
Ntp1606
Rp1607
(lp1608
F-0.9947819709777832
aF7.623410701751709
aF0.3012484014034271
abag1
(g2
g3
Ntp1609
Rp1610
(lp1611
F-1.0023891925811768
aF7.629099369049072
aF0.3012293875217438
abag1
(g2
g3
Ntp1612
Rp1613
(lp1614
F-1.0100212097167969
aF7.634754180908203
aF0.3012104034423828
abag1
(g2
g3
Ntp1615
Rp1616
(lp1617
F-0.9939590692520142
aF8.326610565185547
aF0.2997932434082031
abag1
(g2
g3
Ntp1618
Rp1619
(lp1620
F-1.0046346187591553
aF8.332296371459961
aF0.2997713088989258
abag1
(g2
g3
Ntp1621
Rp1622
(lp1623
F-1.2967058420181274
aF8.023358345031738
aF0.3001329004764557
abag1
(g2
g3
Ntp1624
Rp1625
(lp1626
F-1.3060551881790161
aF8.027725219726562
aF0.3001149594783783
abag1
(g2
g3
Ntp1627
Rp1628
(lp1629
F-1.3154237270355225
aF8.032052040100098
aF0.3000970780849457
abag1
(g2
g3
Ntp1630
Rp1631
(lp1632
F-1.2421505451202393
aF8.657137870788574
aF0.29887261986732483
abag1
(g2
g3
Ntp1633
Rp1634
(lp1635
F-1.2542660236358643
aF8.661737442016602
aF0.29885154962539673
abag1
(g2
g3
Ntp1636
Rp1637
(lp1638
F-1.2664012908935547
aF8.66628360748291
aF0.2988305985927582
abag1
(g2
g3
Ntp1639
Rp1640
(lp1641
F-1.5229820013046265
aF8.970976829528809
aF0.2979554831981659
abag1
(g2
g3
Ntp1642
Rp1643
(lp1644
F-1.5364640951156616
aF8.974348068237305
aF0.2979356646537781
abag1
(g2
g3
Ntp1645
Rp1646
(lp1647
F-1.549960732460022
aF8.977660179138184
aF0.2979159653186798
aba.