(lp0
ccopy_reg
_reconstructor
p1
(cgeometry_msgs.msg._Point32
Point32
p2
c__builtin__
object
p3
Ntp4
Rp5
(lp6
F-5.44424295425415
aF4.499886512756348
aF0.28532537817955017
abag1
(g2
g3
Ntp7
Rp8
(lp9
F-5.433651924133301
aF4.4916887283325195
aF0.28528890013694763
abag1
(g2
g3
Ntp10
Rp11
(lp12
F-5.4256157875061035
aF4.482024192810059
aF0.2852343022823334
abag1
(g2
g3
Ntp13
Rp14
(lp15
F-5.411539554595947
aF4.476003646850586
aF0.2852238714694977
abag1
(g2
g3
Ntp16
Rp17
(lp18
F-5.399167537689209
aF4.46904182434082
aF0.28520166873931885
abag1
(g2
g3
Ntp19
Rp20
(lp21
F-5.379957675933838
aF4.466335296630859
aF0.28523051738739014
abag1
(g2
g3
Ntp22
Rp23
(lp24
F-5.3701276779174805
aF4.457986354827881
aF0.2851908504962921
abag1
(g2
g3
Ntp25
Rp26
(lp27
F-5.358573913574219
aF4.450753688812256
aF0.28516441583633423
abag1
(g2
g3
Ntp28
Rp29
(lp30
F-5.352079391479492
aF4.440395832061768
aF0.28510040044784546
abag1
(g2
g3
Ntp31
Rp32
(lp33
F-5.338789463043213
aF4.434360027313232
aF0.28508782386779785
abag1
(g2
g3
Ntp34
Rp35
(lp36
F-5.330540657043457
aF4.425169467926025
aF0.28503745794296265
abag1
(g2
g3
Ntp37
Rp38
(lp39
F-5.306314945220947
aF4.4263596534729
aF0.2851097881793976
abag1
(g2
g3
Ntp40
Rp41
(lp42
F-5.298041343688965
aF4.417325019836426
aF0.28506073355674744
abag1
(g2
g3
Ntp43
Rp44
(lp45
F-5.290566444396973
aF4.407783031463623
aF0.2850056290626526
abag1
(g2
g3
Ntp46
Rp47
(lp48
F-5.268912315368652
aF4.407711982727051
aF0.28506141901016235
abag1
(g2
g3
Ntp49
Rp50
(lp51
F-5.262230396270752
aF4.397745609283447
aF0.2850009500980377
abag1
(g2
g3
Ntp52
Rp53
(lp54
F-5.251370429992676
aF4.39061975479126
aF0.28497353196144104
abag1
(g2
g3
Ntp55
Rp56
(lp57
F-5.237194061279297
aF4.385822772979736
aF0.2849729359149933
abag1
(g2
g3
Ntp58
Rp59
(lp60
F-5.230417251586914
aF4.37599515914917
aF0.2849137783050537
abag1
(g2
g3
Ntp61
Rp62
(lp63
F-5.223597526550293
aF4.366196632385254
aF0.2848549783229828
abag1
(g2
g3
Ntp64
Rp65
(lp66
F-5.206930637359619
aF4.36334753036499
aF0.2848760783672333
abag1
(g2
g3
Ntp67
Rp68
(lp69
F-5.200056076049805
aF4.353652000427246
aF0.28481820225715637
abag1
(g2
g3
Ntp70
Rp71
(lp72
F-5.188267230987549
aF4.347488880157471
aF0.2848007380962372
abag1
(g2
g3
Ntp73
Rp74
(lp75
F-5.181323528289795
aF4.337874889373779
aF0.28474369645118713
abag1
(g2
g3
Ntp76
Rp77
(lp78
F-5.162235736846924
aF4.337152481079102
aF0.28478771448135376
abag1
(g2
g3
Ntp79
Rp80
(lp81
F-5.151226043701172
aF4.330623626708984
aF0.2847653329372406
abag1
(g2
g3
Ntp82
Rp83
(lp84
F-5.137795925140381
aF4.325953960418701
aF0.28476378321647644
abag1
(g2
g3
Ntp85
Rp86
(lp87
F-5.130758762359619
aF4.3165602684021
aF0.284708708524704
abag1
(g2
g3
Ntp88
Rp89
(lp90
F-5.122087478637695
aF4.308407306671143
aF0.28466758131980896
abag1
(g2
g3
Ntp91
Rp92
(lp93
F-5.112592697143555
aF4.300906658172607
aF0.28463369607925415
abag1
(g2
g3
Ntp94
Rp95
(lp96
F-5.1054463386535645
aF4.291623592376709
aF0.2845797538757324
abag1
(g2
g3
Ntp97
Rp98
(lp99
F-5.098259925842285
aF4.282371520996094
aF0.28452616930007935
abag1
(g2
g3
Ntp100
Rp101
(lp102
F-5.0855326652526855
aF4.277480602264404
aF0.28452107310295105
abag1
(g2
g3
Ntp103
Rp104
(lp105
F-5.0649733543396
aF4.278889179229736
aF0.284585565328598
abag1
(g2
g3
Ntp106
Rp107
(lp108
F-5.0530500411987305
aF4.273566246032715
aF0.2845749855041504
abag1
(g2
g3
Ntp109
Rp110
(lp111
F-5.045007228851318
aF4.265171527862549
aF0.2845303416252136
abag1
(g2
g3
Ntp112
Rp113
(lp114
F-5.033831596374512
aF4.259344577789307
aF0.2845138907432556
abag1
(g2
g3
Ntp115
Rp116
(lp117
F-5.018784523010254
aF4.256761074066162
aF0.2845328450202942
abag1
(g2
g3
Ntp118
Rp119
(lp120
F-5.009139060974121
aF4.2498040199279785
aF0.2845035791397095
abag1
(g2
g3
Ntp121
Rp122
(lp123
F-5.001770496368408
aF4.240972518920898
aF0.28445377945899963
abag1
(g2
g3
Ntp124
Rp125
(lp126
F-4.994363784790039
aF4.232173442840576
aF0.28440430760383606
abag1
(g2
g3
Ntp127
Rp128
(lp129
F-4.986918926239014
aF4.2234063148498535
aF0.28435516357421875
abag1
(g2
g3
Ntp130
Rp131
(lp132
F-4.973371982574463
aF4.219890117645264
aF0.28436294198036194
abag1
(g2
g3
Ntp133
Rp134
(lp135
F-4.965117931365967
aF4.211870193481445
aF0.28432175517082214
abag1
(g2
g3
Ntp136
Rp137
(lp138
F-4.9523186683654785
aF4.20784330368042
aF0.2843236029148102
abag1
(g2
g3
Ntp139
Rp140
(lp141
F-4.9432692527771
aF4.200584411621094
aF0.2842904329299927
abag1
(g2
g3
Ntp142
Rp143
(lp144
F-4.93120813369751
aF4.196033000946045
aF0.2842862606048584
abag1
(g2
g3
Ntp145
Rp146
(lp147
F-4.919888019561768
aF4.190885066986084
aF0.28427547216415405
abag1
(g2
g3
Ntp148
Rp149
(lp150
F-4.9122633934021
aF4.182443618774414
aF0.2842293679714203
abag1
(g2
g3
Ntp151
Rp152
(lp153
F-4.900913715362549
aF4.177411079406738
aF0.2842195928096771
abag1
(g2
g3
Ntp154
Rp155
(lp156
F-4.893230438232422
aF4.1690521240234375
aF0.28417426347732544
abag1
(g2
g3
Ntp157
Rp158
(lp159
F-4.882584095001221
aF4.163453102111816
aF0.28415822982788086
abag1
(g2
g3
Ntp160
Rp161
(lp162
F-4.874840259552002
aF4.155174732208252
aF0.28411370515823364
abag1
(g2
g3
Ntp163
Rp164
(lp165
F-4.8656086921691895
aF4.148305892944336
aF0.2840840518474579
abag1
(g2
g3
Ntp166
Rp167
(lp168
F-4.8577985763549805
aF4.140101432800293
aF0.28404027223587036
abag1
(g2
g3
Ntp169
Rp170
(lp171
F-4.839876174926758
aF4.1416497230529785
aF0.2840990126132965
abag1
(g2
g3
Ntp172
Rp173
(lp174
F-4.830604076385498
aF4.134952545166016
aF0.28407078981399536
abag1
(g2
g3
Ntp175
Rp176
(lp177
F-4.8227362632751465
aF4.126901149749756
aF0.28402838110923767
abag1
(g2
g3
Ntp178
Rp179
(lp180
F-4.814123153686523
aF4.119587421417236
aF0.2839936316013336
abag1
(g2
g3
Ntp181
Rp182
(lp183
F-4.806896209716797
aF4.110901355743408
aF0.28394457697868347
abag1
(g2
g3
Ntp184
Rp185
(lp186
F-4.793992519378662
aF4.107921600341797
aF0.2839548885822296
abag1
(g2
g3
Ntp187
Rp188
(lp189
F-4.786006927490234
aF4.100030422210693
aF0.2839139997959137
abag1
(g2
g3
Ntp190
Rp191
(lp192
F-4.770306587219238
aF4.100047588348389
aF0.2839549779891968
abag1
(g2
g3
Ntp193
Rp194
(lp195
F-4.762287139892578
aF4.092259883880615
aF0.2839150130748749
abag1
(g2
g3
Ntp196
Rp197
(lp198
F-4.7542338371276855
aF4.084506988525391
aF0.28387537598609924
abag1
(g2
g3
Ntp199
Rp200
(lp201
F-4.746835708618164
aF4.076064109802246
aF0.2838286757469177
abag1
(g2
g3
Ntp202
Rp203
(lp204
F-4.738711833953857
aF4.068378925323486
aF0.2837897539138794
abag1
(g2
g3
Ntp205
Rp206
(lp207
F-4.733283996582031
aF4.05780553817749
aF0.28372129797935486
abag1
(g2
g3
Ntp208
Rp209
(lp210
F-4.723722457885742
aF4.051647186279297
aF0.28369805216789246
abag1
(g2
g3
Ntp211
Rp212
(lp213
F-4.715492248535156
aF4.044062614440918
aF0.2836602032184601
abag1
(g2
g3
Ntp214
Rp215
(lp216
F-4.707229137420654
aF4.036514759063721
aF0.28362274169921875
abag1
(g2
g3
Ntp217
Rp218
(lp219
F-4.700272083282471
aF4.027516841888428
aF0.2835705578327179
abag1
(g2
g3
Ntp220
Rp221
(lp222
F-4.707262992858887
aF4.002886772155762
aF0.28335994482040405
abag1
(g2
g3
Ntp223
Rp224
(lp225
F-4.707440376281738
aF3.9856438636779785
aF0.28322479128837585
abag1
(g2
g3
Ntp226
Rp227
(lp228
F-4.700901508331299
aF3.975877285003662
aF0.28316548466682434
abag1
(g2
g3
Ntp229
Rp230
(lp231
F-4.699563026428223
aF3.9600961208343506
aF0.2830456793308258
abag1
(g2
g3
Ntp232
Rp233
(lp234
F-4.69942569732666
aF3.9427757263183594
aF0.2829107344150543
abag1
(g2
g3
Ntp235
Rp236
(lp237
F-4.690720558166504
aF3.935298442840576
aF0.2828749716281891
abag1
(g2
g3
Ntp238
Rp239
(lp240
F-4.687802314758301
aF3.920994281768799
aF0.2827708125114441
abag1
(g2
g3
Ntp241
Rp242
(lp243
F-4.681575775146484
aF3.910505771636963
aF0.28270506858825684
abag1
(g2
g3
Ntp244
Rp245
(lp246
F-4.679129600524902
aF3.8954224586486816
aF0.28259360790252686
abag1
(g2
g3
Ntp247
Rp248
(lp249
F-4.688041687011719
aF3.866441249847412
aF0.2823440134525299
abag1
(g2
g3
Ntp250
Rp251
(lp252
F-4.6796369552612305
aF3.8582403659820557
aF0.28230181336402893
abag1
(g2
g3
Ntp253
Rp254
(lp255
F-4.678121089935303
aF3.8415298461914062
aF0.282175213098526
abag1
(g2
g3
Ntp256
Rp257
(lp258
F-4.669600486755371
aF3.833366870880127
aF0.2821336090564728
abag1
(g2
g3
Ntp259
Rp260
(lp261
F-4.671632766723633
aF3.811941623687744
aF0.28196093440055847
abag1
(g2
g3
Ntp262
Rp263
(lp264
F-4.671031475067139
aF3.7935984134674072
aF0.281819224357605
abag1
(g2
g3
Ntp265
Rp266
(lp267
F-4.669069766998291
aF3.7767956256866455
aF0.2816930413246155
abag1
(g2
g3
Ntp268
Rp269
(lp270
F-4.666380405426025
aF3.7607593536376953
aF0.2815747559070587
abag1
(g2
g3
Ntp271
Rp272
(lp273
F-4.659318447113037
aF3.750256299972534
aF0.2815110981464386
abag1
(g2
g3
Ntp274
Rp275
(lp276
F-4.656437873840332
aF3.7342042922973633
aF0.2813931703567505
abag1
(g2
g3
Ntp277
Rp278
(lp279
F-4.656460285186768
aF3.7141454219818115
aF0.2812364101409912
abag1
(g2
g3
Ntp280
Rp281
(lp282
F-4.655141830444336
aF3.695645809173584
aF0.28109532594680786
abag1
(g2
g3
Ntp283
Rp284
(lp285
F-4.647144794464111
aF3.6859536170959473
aF0.2810404300689697
abag1
(g2
g3
Ntp286
Rp287
(lp288
F-4.637319564819336
aF3.6787071228027344
aF0.28100937604904175
abag1
(g2
g3
Ntp289
Rp290
(lp291
F-4.628639221191406
aF3.669886350631714
aF0.2809630334377289
abag1
(g2
g3
Ntp292
Rp293
(lp294
F-4.631024360656738
aF3.6456856727600098
aF0.2807677686214447
abag1
(g2
g3
Ntp295
Rp296
(lp297
F-4.639041423797607
aF3.6132845878601074
aF0.2804937958717346
abag1
(g2
g3
Ntp298
Rp299
(lp300
F-4.63698673248291
aF3.59464693069458
aF0.2803535461425781
abag1
(g2
g3
Ntp301
Rp302
(lp303
F-4.62791109085083
aF3.5858078002929688
aF0.2803080976009369
abag1
(g2
g3
Ntp304
Rp305
(lp306
F-4.632483005523682
aF3.55729341506958
aF0.2800734341144562
abag1
(g2
g3
Ntp307
Rp308
(lp309
F-4.623230457305908
aF3.548464298248291
aF0.2800285518169403
abag1
(g2
g3
Ntp310
Rp311
(lp312
F-4.620128631591797
aF3.530582904815674
aF0.27989691495895386
abag1
(g2
g3
Ntp313
Rp314
(lp315
F-4.619700908660889
aF3.5085396766662598
aF0.2797258198261261
abag1
(g2
g3
Ntp316
Rp317
(lp318
F-4.611882209777832
aF3.4972591400146484
aF0.2796580493450165
abag1
(g2
g3
Ntp319
Rp320
(lp321
F-4.6133880615234375
aF3.4718310832977295
aF0.2794554829597473
abag1
(g2
g3
Ntp322
Rp323
(lp324
F-4.613605499267578
aF3.4480156898498535
aF0.27926886081695557
abag1
(g2
g3
Ntp325
Rp326
(lp327
F-4.602742671966553
aF3.4409172534942627
aF0.279241681098938
abag1
(g2
g3
Ntp328
Rp329
(lp330
F-4.593472957611084
aF3.431344747543335
aF0.2791909873485565
abag1
(g2
g3
Ntp331
Rp332
(lp333
F-4.602975368499756
aF3.3923001289367676
aF0.27886125445365906
abag1
(g2
g3
Ntp334
Rp335
(lp336
F-4.593471527099609
aF3.3827128410339355
aF0.27881109714508057
abag1
(g2
g3
Ntp337
Rp338
(lp339
F-4.594524383544922
aF3.3562068939208984
aF0.2786012887954712
abag1
(g2
g3
Ntp340
Rp341
(lp342
F-4.588001728057861
aF3.341542959213257
aF0.2785036861896515
abag1
(g2
g3
Ntp343
Rp344
(lp345
F-4.581381320953369
aF3.3268868923187256
aF0.27840641140937805
abag1
(g2
g3
Ntp346
Rp347
(lp348
F-4.577260494232178
aF3.307966709136963
aF0.27826932072639465
abag1
(g2
g3
Ntp349
Rp350
(lp351
F-4.565786838531494
aF3.3010284900665283
aF0.2782449722290039
abag1
(g2
g3
Ntp352
Rp353
(lp354
F-4.573732852935791
aF3.2614967823028564
aF0.27791547775268555
abag1
(g2
g3
Ntp355
Rp356
(lp357
F-4.562564373016357
aF3.2537131309509277
aF0.27788370847702026
abag1
(g2
g3
Ntp358
Rp359
(lp360
F-4.562453269958496
aF3.2269794940948486
aF0.27767515182495117
abag1
(g2
g3
Ntp361
Rp362
(lp363
F-4.559636116027832
aF3.204524517059326
aF0.27750706672668457
abag1
(g2
g3
Ntp364
Rp365
(lp366
F-4.557149410247803
aF3.1811752319335938
aF0.27733114361763
abag1
(g2
g3
Ntp367
Rp368
(lp369
F-4.5485734939575195
aF3.1682357788085938
aF0.27725234627723694
abag1
(g2
g3
Ntp370
Rp371
(lp372
F-4.547741413116455
aF3.141364812850952
aF0.2770445942878723
abag1
(g2
g3
Ntp373
Rp374
(lp375
F-4.540879726409912
aF3.1249396800994873
aF0.2769341468811035
abag1
(g2
g3
Ntp376
Rp377
(lp378
F-4.53872013092041
aF3.0997579097747803
aF0.2767430245876312
abag1
(g2
g3
Ntp379
Rp380
(lp381
F-4.529682159423828
aF3.0868403911590576
aF0.2766656279563904
abag1
(g2
g3
Ntp382
Rp383
(lp384
F-4.534303665161133
aF3.0484118461608887
aF0.2763533890247345
abag1
(g2
g3
Ntp385
Rp386
(lp387
F-4.521697998046875
aF3.041663646697998
aF0.2763334810733795
abag1
(g2
g3
Ntp388
Rp389
(lp390
F-4.521649360656738
aF3.01108455657959
aF0.2760947048664093
abag1
(g2
g3
Ntp391
Rp392
(lp393
F-4.520900726318359
aF2.9813380241394043
aF0.27586427330970764
abag1
(g2
g3
Ntp394
Rp395
(lp396
F-4.514878749847412
aF2.961318254470825
aF0.27572354674339294
abag1
(g2
g3
Ntp397
Rp398
(lp399
F-4.520984172821045
aF2.9172470569610596
aF0.27536338567733765
abag1
(g2
g3
Ntp400
Rp401
(lp402
F-4.507806301116943
aF2.910557746887207
aF0.2753453850746155
abag1
(g2
g3
Ntp403
Rp404
(lp405
F-4.50130033493042
aF2.890507221221924
aF0.27520567178726196
abag1
(g2
g3
Ntp406
Rp407
(lp408
F-4.498634338378906
aF2.86238694190979
aF0.2749929428100586
abag1
(g2
g3
Ntp409
Rp410
(lp411
F-4.496190547943115
aF2.83333420753479
aF0.2747723460197449
abag1
(g2
g3
Ntp412
Rp413
(lp414
F-4.488301753997803
aF2.815049171447754
aF0.2746500074863434
abag1
(g2
g3
Ntp415
Rp416
(lp417
F-4.486317157745361
aF2.784142255783081
aF0.27441373467445374
abag1
(g2
g3
Ntp418
Rp419
(lp420
F-4.4811015129089355
aF2.7595229148864746
aF0.27423495054244995
abag1
(g2
g3
Ntp421
Rp422
(lp423
F-4.475275993347168
aF2.735795259475708
aF0.2740647494792938
abag1
(g2
g3
Ntp424
Rp425
(lp426
F-4.467595100402832
aF2.7156896591186523
aF0.2739276587963104
abag1
(g2
g3
Ntp427
Rp428
(lp429
F-4.460597515106201
aF2.6937713623046875
aF0.273774653673172
abag1
(g2
g3
Ntp430
Rp431
(lp432
F-4.456315994262695
aF2.6654727458953857
aF0.2735646963119507
abag1
(g2
g3
Ntp433
Rp434
(lp435
F-4.447335243225098
aF2.647195816040039
aF0.2734452784061432
abag1
(g2
g3
Ntp436
Rp437
(lp438
F-4.437415599822998
aF2.630765676498413
aF0.27334272861480713
abag1
(g2
g3
Ntp439
Rp440
(lp441
F-4.4349684715271
aF2.596940517425537
aF0.2730848491191864
abag1
(g2
g3
Ntp442
Rp443
(lp444
F-4.425532817840576
aF2.5786893367767334
aF0.27296683192253113
abag1
(g2
g3
Ntp445
Rp446
(lp447
F-4.424182891845703
aF2.541132688522339
aF0.272676944732666
abag1
(g2
g3
Ntp448
Rp449
(lp450
F-4.418272495269775
aF2.5136654376983643
aF0.27247774600982666
abag1
(g2
g3
Ntp451
Rp452
(lp453
F-4.425180435180664
aF2.4547832012176514
aF0.2719997763633728
abag1
(g2
g3
Ntp454
Rp455
(lp456
F-4.414535999298096
aF2.437413454055786
aF0.2718917727470398
abag1
(g2
g3
Ntp457
Rp458
(lp459
F-4.415773868560791
aF2.390409231185913
aF0.27152132987976074
abag1
(g2
g3
Ntp460
Rp461
(lp462
F-4.403266906738281
aF2.376755952835083
aF0.27144721150398254
abag1
(g2
g3
Ntp463
Rp464
(lp465
F-4.394339084625244
aF2.3538432121276855
aF0.27129143476486206
abag1
(g2
g3
Ntp466
Rp467
(lp468
F-4.378704071044922
aF2.3477120399475098
aF0.27128422260284424
abag1
(g2
g3
Ntp469
Rp470
(lp471
F-4.363041877746582
aF2.341649055480957
aF0.27127760648727417
abag1
(g2
g3
Ntp472
Rp473
(lp474
F-4.342740535736084
aF2.3478078842163086
aF0.2713785171508789
abag1
(g2
g3
Ntp475
Rp476
(lp477
F-4.3253254890441895
aF2.3465840816497803
aF0.27141427993774414
abag1
(g2
g3
Ntp478
Rp479
(lp480
F-4.297871112823486
aF2.3726439476013184
aF0.2716892659664154
abag1
(g2
g3
Ntp481
Rp482
(lp483
F-4.281290531158447
aF2.3697519302368164
aF0.2717097997665405
abag1
(g2
g3
Ntp484
Rp485
(lp486
F-4.256586074829102
aF2.389518976211548
aF0.27192848920822144
abag1
(g2
g3
Ntp487
Rp488
(lp489
F-4.235757350921631
aF2.399066925048828
aF0.27205726504325867
abag1
(g2
g3
Ntp490
Rp491
(lp492
F-4.208760738372803
aF2.426661729812622
aF0.27234306931495667
abag1
(g2
g3
Ntp493
Rp494
(lp495
F-4.186922073364258
aF2.4402451515197754
aF0.2725059986114502
abag1
(g2
g3
Ntp496
Rp497
(lp498
F-4.16973352432251
aF2.4406983852386475
aF0.2725542485713959
abag1
(g2
g3
Ntp499
Rp500
(lp501
F-4.152254104614258
aF2.442183017730713
aF0.2726113200187683
abag1
(g2
g3
Ntp502
Rp503
(lp504
F-4.129162311553955
aF2.4608442783355713
aF0.2728171944618225
abag1
(g2
g3
Ntp505
Rp506
(lp507
F-4.113996505737305
aF2.45586895942688
aF0.2728177607059479
abag1
(g2
g3
Ntp508
Rp509
(lp510
F-4.083230018615723
aF2.4995205402374268
aF0.27323880791664124
abag1
(g2
g3
Ntp511
Rp512
(lp513
F-4.0673298835754395
aF2.497606039047241
aF0.27326521277427673
abag1
(g2
g3
Ntp514
Rp515
(lp516
F-4.0466790199279785
aF2.5110414028167725
aF0.2734239101409912
abag1
(g2
g3
Ntp517
Rp518
(lp519
F-4.02733850479126
aF2.5207672119140625
aF0.2735501825809479
abag1
(g2
g3
Ntp520
Rp521
(lp522
F-4.010124683380127
aF2.5238945484161377
aF0.2736194133758545
abag1
(g2
g3
Ntp523
Rp524
(lp525
F-3.984419345855713
aF2.5558650493621826
aF0.27393603324890137
abag1
(g2
g3
Ntp526
Rp527
(lp528
F-3.9688282012939453
aF2.5544004440307617
aF0.27396515011787415
abag1
(g2
g3
Ntp529
Rp530
(lp531
F-3.9488234519958496
aF2.5683836936950684
aF0.27412644028663635
abag1
(g2
g3
Ntp532
Rp533
(lp534
F-3.9322242736816406
aF2.5709304809570312
aF0.2741895020008087
abag1
(g2
g3
Ntp535
Rp536
(lp537
F-3.9175405502319336
aF2.5668134689331055
aF0.2741955518722534
abag1
(g2
g3
Ntp538
Rp539
(lp540
F-3.8936116695404053
aF2.5965211391448975
aF0.2744898796081543
abag1
(g2
g3
Ntp541
Rp542
(lp543
F-3.876964807510376
aF2.6002984046936035
aF0.27456268668174744
abag1
(g2
g3
Ntp544
Rp545
(lp546
F-3.8590919971466064
aF2.6089913845062256
aF0.2746770977973938
abag1
(g2
g3
Ntp547
Rp548
(lp549
F-3.840057373046875
aF2.6226162910461426
aF0.2748330533504486
abag1
(g2
g3
Ntp550
Rp551
(lp552
F-3.8216519355773926
aF2.6344058513641357
aF0.2749730348587036
abag1
(g2
g3
Ntp553
Rp554
(lp555
F-3.807246446609497
aF2.6307709217071533
aF0.27498212456703186
abag1
(g2
g3
Ntp556
Rp557
(lp558
F-3.787344217300415
aF2.6495354175567627
aF0.27518048882484436
abag1
(g2
g3
Ntp559
Rp560
(lp561
F-3.7685577869415283
aF2.6645214557647705
aF0.27534642815589905
abag1
(g2
g3
Ntp562
Rp563
(lp564
F-3.7533648014068604
aF2.665010452270508
aF0.27538976073265076
abag1
(g2
g3
Ntp565
Rp566
(lp567
F-3.736837863922119
aF2.671414852142334
aF0.27548280358314514
abag1
(g2
g3
Ntp568
Rp569
(lp570
F-3.721266746520996
aF2.6740009784698486
aF0.2755435109138489
abag1
(g2
g3
Ntp571
Rp572
(lp573
F-3.702476739883423
aF2.6913020610809326
aF0.2757275402545929
abag1
(g2
g3
Ntp574
Rp575
(lp576
F-3.684277296066284
aF2.7067506313323975
aF0.2758955657482147
abag1
(g2
g3
Ntp577
Rp578
(lp579
F-3.66601824760437
aF2.723273992538452
aF0.2760721445083618
abag1
(g2
g3
Ntp580
Rp581
(lp582
F-3.6513891220092773
aF2.7232537269592285
aF0.27611005306243896
abag1
(g2
g3
Ntp583
Rp584
(lp585
F-3.634773015975952
aF2.733097791671753
aF0.27623018622398376
abag1
(g2
g3
Ntp586
Rp587
(lp588
F-3.61942982673645
aF2.7371416091918945
aF0.27630168199539185
abag1
(g2
g3
Ntp589
Rp590
(lp591
F-3.5985829830169678
aF2.769721031188965
aF0.27661043405532837
abag1
(g2
g3
Ntp592
Rp593
(lp594
F-3.582524299621582
aF2.7788455486297607
aF0.2767234742641449
abag1
(g2
g3
Ntp595
Rp596
(lp597
F-3.565459966659546
aF2.7939484119415283
aF0.27688586711883545
abag1
(g2
g3
Ntp598
Rp599
(lp600
F-3.551753044128418
aF2.7914295196533203
aF0.27690184116363525
abag1
(g2
g3
Ntp601
Rp602
(lp603
F-3.5380351543426514
aF2.788970708847046
aF0.27691832184791565
abag1
(g2
g3
Ntp604
Rp605
(lp606
F-3.520737409591675
aF2.807265281677246
aF0.27710622549057007
abag1
(g2
g3
Ntp607
Rp608
(lp609
F-3.5029470920562744
aF2.8295953273773193
aF0.2773269712924957
abag1
(g2
g3
Ntp610
Rp611
(lp612
F-3.4892349243164062
aF2.828335762023926
aF0.27735278010368347
abag1
(g2
g3
Ntp613
Rp614
(lp615
F-3.4739511013031006
aF2.837012767791748
aF0.27746033668518066
abag1
(g2
g3
Ntp616
Rp617
(lp618
F-3.4586000442504883
aF2.8467514514923096
aF0.27757635712623596
abag1
(g2
g3
Ntp619
Rp620
(lp621
F-3.444679021835327
aF2.847665309906006
aF0.27761971950531006
abag1
(g2
g3
Ntp622
Rp623
(lp624
F-3.429910659790039
aF2.854578733444214
aF0.2777121365070343
abag1
(g2
g3
Ntp625
Rp626
(lp627
F-3.414652109146118
aF2.865522861480713
aF0.277837336063385
abag1
(g2
g3
Ntp628
Rp629
(lp630
F-3.399226665496826
aF2.8785226345062256
aF0.2779790163040161
abag1
(g2
g3
Ntp631
Rp632
(lp633
F-3.383791923522949
aF2.892589807510376
aF0.27812904119491577
abag1
(g2
g3
Ntp634
Rp635
(lp636
F-3.36912202835083
aF2.901773691177368
aF0.2782389521598816
abag1
(g2
g3
Ntp637
Rp638
(lp639
F-3.3545401096343994
aF2.911027431488037
aF0.2783491909503937
abag1
(g2
g3
Ntp640
Rp641
(lp642
F-3.3408734798431396
aF2.9133996963500977
aF0.27840328216552734
abag1
(g2
g3
Ntp643
Rp644
(lp645
F-3.3267791271209717
aF2.9198076725006104
aF0.27849000692367554
abag1
(g2
g3
Ntp646
Rp647
(lp648
F-3.3136236667633057
aF2.9183290004730225
aF0.2785126566886902
abag1
(g2
g3
Ntp649
Rp650
(lp651
F-3.3002514839172363
aF2.9188969135284424
aF0.2785519063472748
abag1
(g2
g3
Ntp652
Rp653
(lp654
F-3.286991596221924
aF2.9185290336608887
aF0.2785835266113281
abag1
(g2
g3
Ntp655
Rp656
(lp657
F-3.2708401679992676
aF2.9480786323547363
aF0.2788563668727875
abag1
(g2
g3
Ntp658
Rp659
(lp660
F-3.255873680114746
aF2.9677536487579346
aF0.27904900908470154
abag1
(g2
g3
Ntp661
Rp662
(lp663
F-3.2422258853912354
aF2.974553108215332
aF0.27913764119148254
abag1
(g2
g3
Ntp664
Rp665
(lp666
F-3.2290596961975098
aF2.9764325618743896
aF0.27918657660484314
abag1
(g2
g3
Ntp667
Rp668
(lp669
F-3.2161521911621094
aF2.9753799438476562
aF0.2792119085788727
abag1
(g2
g3
Ntp670
Rp671
(lp672
F-3.2030909061431885
aF2.9763777256011963
aF0.27925369143486023
abag1
(g2
g3
Ntp673
Rp674
(lp675
F-3.189831495285034
aF2.9804258346557617
aF0.2793198227882385
abag1
(g2
g3
Ntp676
Rp677
(lp678
F-3.177272081375122
aF2.974555253982544
aF0.2793066203594208
abag1
(g2
g3
Ntp679
Rp680
(lp681
F-3.164480209350586
aF2.9717326164245605
aF0.27931785583496094
abag1
(g2
g3
Ntp682
Rp683
(lp684
F-3.1524128913879395
aF2.955986738204956
aF0.27922624349594116
abag1
(g2
g3
Ntp685
Rp686
(lp687
F-3.1395227909088135
aF2.9532718658447266
aF0.2792385518550873
abag1
(g2
g3
Ntp688
Rp689
(lp690
F-2.9716525077819824
aF5.7072038650512695
aF0.3011893332004547
abag1
(g2
g3
Ntp691
Rp692
(lp693
F-2.9707577228546143
aF5.7092461585998535
aF0.30120763182640076
abag1
(g2
g3
Ntp694
Rp695
(lp696
F-2.9698288440704346
aF5.710293292999268
aF0.3012182116508484
abag1
(g2
g3
Ntp697
Rp698
(lp699
F-2.968796968460083
aF5.709347724914551
aF0.3012135326862335
abag1
(g2
g3
Ntp700
Rp701
(lp702
F-2.967695951461792
aF5.707408428192139
aF0.3012012243270874
abag1
(g2
g3
Ntp703
Rp704
(lp705
F-2.249429225921631
aF2.324554681777954
aF0.27664244174957275
abag1
(g2
g3
Ntp706
Rp707
(lp708
F-2.231250524520874
aF2.316032886505127
aF0.2766231596469879
abag1
(g2
g3
Ntp709
Rp710
(lp711
F-2.2102887630462646
aF2.2948837280273438
aF0.27651247382164
abag1
(g2
g3
Ntp712
Rp713
(lp714
F-2.1944172382354736
aF2.2982826232910156
aF0.2765803039073944
abag1
(g2
g3
Ntp715
Rp716
(lp717
F-2.178560733795166
aF2.301750659942627
aF0.2766486406326294
abag1
(g2
g3
Ntp718
Rp719
(lp720
F-2.1647000312805176
aF2.3140671253204346
aF0.2767809331417084
abag1
(g2
g3
Ntp721
Rp722
(lp723
F-2.150258779525757
aF2.3235116004943848
aF0.2768922746181488
abag1
(g2
g3
Ntp724
Rp725
(lp726
F-2.13679838180542
aF2.336907148361206
aF0.27703192830085754
abag1
(g2
g3
Ntp727
Rp728
(lp729
F-2.122973680496216
aF2.3484060764312744
aF0.277157723903656
abag1
(g2
g3
Ntp730
Rp731
(lp732
F-2.1116037368774414
aF2.3696718215942383
aF0.277353435754776
abag1
(g2
g3
Ntp733
Rp734
(lp735
F-2.0977487564086914
aF2.380293607711792
aF0.27747246623039246
abag1
(g2
g3
Ntp736
Rp737
(lp738
F-2.084460735321045
aF2.392906904220581
aF0.2776055634021759
abag1
(g2
g3
Ntp739
Rp740
(lp741
F-2.0695173740386963
aF2.3987903594970703
aF0.27769041061401367
abag1
(g2
g3
Ntp742
Rp743
(lp744
F-2.0558786392211914
aF2.4095728397369385
aF0.27781012654304504
abag1
(g2
g3
Ntp745
Rp746
(lp747
F-2.041800022125244
aF2.4184746742248535
aF0.27791628241539
abag1
(g2
g3
Ntp748
Rp749
(lp750
F-2.0322425365448
aF2.443835973739624
aF0.27813926339149475
abag1
(g2
g3
Ntp751
Rp752
(lp753
F-2.017822742462158
aF2.450901508331299
aF0.27823197841644287
abag1
(g2
g3
Ntp754
Rp755
(lp756
F-2.004258632659912
aF2.460914373397827
aF0.2783454954624176
abag1
(g2
g3
Ntp757
Rp758
(lp759
F-1.9896636009216309
aF2.4671335220336914
aF0.27843204140663147
abag1
(g2
g3
Ntp760
Rp761
(lp762
F-1.9767794609069824
aF2.479174852371216
aF0.2785596251487732
abag1
(g2
g3
Ntp763
Rp764
(lp765
F-1.9631314277648926
aF2.4883859157562256
aF0.2786670923233032
abag1
(g2
g3
Ntp766
Rp767
(lp768
F-1.9544334411621094
aF2.5139312744140625
aF0.2788892686367035
abag1
(g2
g3
Ntp769
Rp770
(lp771
F-1.9409788846969604
aF2.523226737976074
aF0.27899688482284546
abag1
(g2
g3
Ntp772
Rp773
(lp774
F-1.9269940853118896
aF2.5306642055511475
aF0.27909138798713684
abag1
(g2
g3
Ntp775
Rp776
(lp777
F-1.9130544662475586
aF2.538158655166626
aF0.2791861891746521
abag1
(g2
g3
Ntp778
Rp779
(lp780
F-1.9003770351409912
aF2.5495200157165527
aF0.27930793166160583
abag1
(g2
g3
Ntp781
Rp782
(lp783
F-1.8880867958068848
aF2.5618784427642822
aF0.2794364392757416
abag1
(g2
g3
Ntp784
Rp785
(lp786
F-1.8799471855163574
aF2.5866281986236572
aF0.2796509563922882
abag1
(g2
g3
Ntp787
Rp788
(lp789
F-1.8666185140609741
aF2.595259666442871
aF0.27975305914878845
abag1
(g2
g3
Ntp790
Rp791
(lp792
F-1.8520609140396118
aF2.6001551151275635
aF0.2798291742801666
abag1
(g2
g3
Ntp793
Rp794
(lp795
F-1.8375250101089478
aF2.605113983154297
aF0.2799057364463806
abag1
(g2
g3
Ntp796
Rp797
(lp798
F-1.826630711555481
aF2.620523452758789
aF0.2800544500350952
abag1
(g2
g3
Ntp799
Rp800
(lp801
F-1.8121837377548218
aF2.625593423843384
aF0.28013163805007935
abag1
(g2
g3
Ntp802
Rp803
(lp804
F-1.8068664073944092
aF2.6561429500579834
aF0.2803841233253479
abag1
(g2
g3
Ntp805
Rp806
(lp807
F-1.794965147972107
aF2.6678779125213623
aF0.28050675988197327
abag1
(g2
g3
Ntp808
Rp809
(lp810
F-1.7814160585403442
aF2.674962043762207
aF0.28059735894203186
abag1
(g2
g3
Ntp811
Rp812
(lp813
F-1.768955111503601
aF2.684913158416748
aF0.2807075083255768
abag1
(g2
g3
Ntp814
Rp815
(lp816
F-1.7590340375900269
aF2.7014577388763428
aF0.28086256980895996
abag1
(g2
g3
Ntp817
Rp818
(lp819
F-1.7478032112121582
aF2.714292049407959
aF0.2809920608997345
abag1
(g2
g3
Ntp820
Rp821
(lp822
F-1.7366608381271362
aF2.7271625995635986
aF0.2811215817928314
abag1
(g2
g3
Ntp823
Rp824
(lp825
F-1.7226799726486206
aF2.732624053955078
aF0.2812006175518036
abag1
(g2
g3
Ntp826
Rp827
(lp828
F-1.711313009262085
aF2.7446494102478027
aF0.2813241481781006
abag1
(g2
g3
Ntp829
Rp830
(lp831
F-1.6977828741073608
aF2.7511487007141113
aF0.2814100980758667
abag1
(g2
g3
Ntp832
Rp833
(lp834
F-1.683907151222229
aF2.756779432296753
aF0.2814902067184448
abag1
(g2
g3
Ntp835
Rp836
(lp837
F-1.6708201169967651
aF2.7643187046051025
aF0.28158313035964966
abag1
(g2
g3
Ntp838
Rp839
(lp840
F-1.667427659034729
aF2.7949724197387695
aF0.28183144330978394
abag1
(g2
g3
Ntp841
Rp842
(lp843
F-1.6537432670593262
aF2.8007349967956543
aF0.28191205859184265
abag1
(g2
g3
Ntp844
Rp845
(lp846
F-1.6416610479354858
aF2.8102335929870605
aF0.28201767802238464
abag1
(g2
g3
Ntp847
Rp848
(lp849
F-1.6288398504257202
aF2.8179433345794678
aF0.282111257314682
abag1
(g2
g3
Ntp850
Rp851
(lp852
F-1.6156585216522217
aF2.8247900009155273
aF0.28219905495643616
abag1
(g2
g3
Ntp853
Rp854
(lp855
F-1.6033233404159546
aF2.833519697189331
aF0.28229933977127075
abag1
(g2
g3
Ntp856
Rp857
(lp858
F-1.5971903800964355
aF2.855977773666382
aF0.28249073028564453
abag1
(g2
g3
Ntp859
Rp860
(lp861
F-1.5841870307922363
aF2.8629565238952637
aF0.28257906436920166
abag1
(g2
g3
Ntp862
Rp863
(lp864
F-1.5724726915359497
aF2.872715473175049
aF0.282685786485672
abag1
(g2
g3
Ntp865
Rp866
(lp867
F-1.561660885810852
aF2.884330987930298
aF0.2828046679496765
abag1
(g2
g3
Ntp868
Rp869
(lp870
F-1.5492196083068848
aF2.8923637866973877
aF0.28289976716041565
abag1
(g2
g3
Ntp871
Rp872
(lp873
F-1.5411207675933838
aF2.909475564956665
aF0.28305453062057495
abag1
(g2
g3
Ntp874
Rp875
(lp876
F-1.5288050174713135
aF2.9175901412963867
aF0.28314995765686035
abag1
(g2
g3
Ntp877
Rp878
(lp879
F-1.5160950422286987
aF2.9248557090759277
aF0.28323978185653687
abag1
(g2
g3
Ntp880
Rp881
(lp882
F-1.5056289434432983
aF2.9366602897644043
aF0.28335922956466675
abag1
(g2
g3
Ntp883
Rp884
(lp885
F-1.493010401725769
aF2.9440231323242188
aF0.28344956040382385
abag1
(g2
g3
Ntp886
Rp887
(lp888
F-1.481326699256897
aF2.9532251358032227
aF0.2835518419742584
abag1
(g2
g3
Ntp889
Rp890
(lp891
F-1.4683349132537842
aF2.9597983360290527
aF0.28363698720932007
abag1
(g2
g3
Ntp892
Rp893
(lp894
F-1.4553717374801636
aF2.966428279876709
aF0.28372251987457275
abag1
(g2
g3
Ntp895
Rp896
(lp897
F-1.4438211917877197
aF2.975776433944702
aF0.2838255763053894
abag1
(g2
g3
Ntp898
Rp899
(lp900
F-1.4379037618637085
aF2.9957921504974365
aF0.2839973568916321
abag1
(g2
g3
Ntp901
Rp902
(lp903
F-1.426973581314087
aF3.006087303161621
aF0.28410619497299194
abag1
(g2
g3
Ntp904
Rp905
(lp906
F-1.4156311750411987
aF3.015540599822998
aF0.28420957922935486
abag1
(g2
g3
Ntp907
Rp908
(lp909
F-2.7326602935791016
aF5.523478984832764
aF0.3003757894039154
abag1
(g2
g3
Ntp910
Rp911
(lp912
F-2.7355690002441406
aF5.532244682312012
aF0.30043670535087585
abag1
(g2
g3
Ntp913
Rp914
(lp915
F-2.7353954315185547
aF5.5358734130859375
aF0.30046549439430237
abag1
(g2
g3
Ntp916
Rp917
(lp918
F-2.734189987182617
aF5.537798881530762
aF0.30048367381095886
abag1
(g2
g3
Ntp919
Rp920
(lp921
F-2.7324635982513428
aF5.538881301879883
aF0.3004966080188751
abag1
(g2
g3
Ntp922
Rp923
(lp924
F-2.7318155765533447
aF5.541658401489258
aF0.30052000284194946
abag1
(g2
g3
Ntp925
Rp926
(lp927
F-2.736050844192505
aF5.552006244659424
aF0.30058982968330383
abag1
(g2
g3
Ntp928
Rp929
(lp930
F-2.734386444091797
aF5.5530805587768555
aF0.300602525472641
abag1
(g2
g3
Ntp931
Rp932
(lp933
F-2.732726812362671
aF5.55416202545166
aF0.3006153106689453
abag1
(g2
g3
Ntp934
Rp935
(lp936
F-2.7327260971069336
aF5.557753086090088
aF0.30064335465431213
abag1
(g2
g3
Ntp937
Rp938
(lp939
F-2.729421615600586
aF5.556346416473389
aF0.3006409704685211
abag1
(g2
g3
Ntp940
Rp941
(lp942
F-2.731128215789795
aF5.56242561340332
aF0.30068403482437134
abag1
(g2
g3
Ntp943
Rp944
(lp945
F-2.7295093536376953
aF5.563521385192871
aF0.30069679021835327
abag1
(g2
g3
Ntp946
Rp947
(lp948
F-2.7239341735839844
aF5.558852672576904
aF0.30067482590675354
abag1
(g2
g3
Ntp949
Rp950
(lp951
F-2.710465669631958
aF5.577211856842041
aF0.30085328221321106
abag1
(g2
g3
Ntp952
Rp953
(lp954
F-2.708106279373169
aF5.616398334503174
aF0.30116555094718933
abag1
(g2
g3
Ntp955
Rp956
(lp957
F-2.7067229747772217
aF5.617593765258789
aF0.3011784851551056
abag1
(g2
g3
Ntp958
Rp959
(lp960
F-2.7053451538085938
aF5.618794918060303
aF0.30119144916534424
abag1
(g2
g3
Ntp961
Rp962
(lp963
F-2.703310489654541
aF5.619253158569336
aF0.30120033025741577
abag1
(g2
g3
Ntp964
Rp965
(lp966
F-2.6703994274139404
aF5.614322662353516
aF0.30124741792678833
abag1
(g2
g3
Ntp967
Rp968
(lp969
F-2.667606830596924
aF5.614255428314209
aF0.30125415325164795
abag1
(g2
g3
Ntp970
Rp971
(lp972
F-2.6641039848327637
aF5.613495349884033
aF0.30125734210014343
abag1
(g2
g3
Ntp973
Rp974
(lp975
F-2.5360612869262695
aF5.61295223236084
aF0.30158618092536926
abag1
(g2
g3
Ntp976
Rp977
(lp978
F-2.5463976860046387
aF5.656464099884033
aF0.3018992245197296
abag1
(g2
g3
Ntp979
Rp980
(lp981
F-2.5451910495758057
aF5.658364772796631
aF0.3019172251224518
abag1
(g2
g3
Ntp982
Rp983
(lp984
F-0.5191962718963623
aF4.5388593673706055
aF0.29844194650650024
abag1
(g2
g3
Ntp985
Rp986
(lp987
F-0.5706964731216431
aF4.581901550292969
aF0.29864421486854553
abag1
(g2
g3
Ntp988
Rp989
(lp990
F-0.5866773724555969
aF4.60456657409668
aF0.29877969622612
abag1
(g2
g3
Ntp991
Rp992
(lp993
F-0.580899715423584
aF4.615027904510498
aF0.29887646436691284
abag1
(g2
g3
Ntp994
Rp995
(lp996
F-0.5751674771308899
aF4.625514030456543
aF0.29897329211235046
abag1
(g2
g3
Ntp997
Rp998
(lp999
F-0.5641977787017822
aF4.633182048797607
aF0.29906174540519714
abag1
(g2
g3
Ntp1000
Rp1001
(lp1002
F-0.5585450530052185
aF4.643741130828857
aF0.2991589307785034
abag1
(g2
g3
Ntp1003
Rp1004
(lp1005
F-0.503395676612854
aF4.628218650817871
aF0.29918113350868225
abag1
(g2
g3
Ntp1006
Rp1007
(lp1008
F-0.4924018681049347
aF4.6362690925598145
aF0.2992726266384125
abag1
(g2
g3
Ntp1009
Rp1010
(lp1011
F-0.48498567938804626
aF4.646224498748779
aF0.2993696928024292
abag1
(g2
g3
Ntp1012
Rp1013
(lp1014
F-0.47939056158065796
aF4.657129287719727
aF0.2994694411754608
abag1
(g2
g3
Ntp1015
Rp1016
(lp1017
F-0.47384321689605713
aF4.668057918548584
aF0.2995692491531372
abag1
(g2
g3
Ntp1018
Rp1019
(lp1020
F-0.48265787959098816
aF4.686159133911133
aF0.2996877133846283
abag1
(g2
g3
Ntp1021
Rp1022
(lp1023
F-0.4960654377937317
aF4.706373691558838
aF0.2998107671737671
abag1
(g2
g3
Ntp1024
Rp1025
(lp1026
F-0.49073269963264465
aF4.71722936630249
aF0.29990944266319275
abag1
(g2
g3
Ntp1027
Rp1028
(lp1029
F-0.506156861782074
aF4.7381134033203125
aF0.30003246665000916
abag1
(g2
g3
Ntp1030
Rp1031
(lp1032
F-0.5045719742774963
aF4.7506489753723145
aF0.3001345098018646
abag1
(g2
g3
Ntp1033
Rp1034
(lp1035
F-0.49943238496780396
aF4.761466979980469
aF0.3002323806285858
abag1
(g2
g3
Ntp1036
Rp1037
(lp1038
F-0.4943399727344513
aF4.772307395935059
aF0.30033034086227417
abag1
(g2
g3
Ntp1039
Rp1040
(lp1041
F-0.489295095205307
aF4.783170223236084
aF0.3004283010959625
abag1
(g2
g3
Ntp1042
Rp1043
(lp1044
F-0.48429757356643677
aF4.7940545082092285
aF0.30052635073661804
abag1
(g2
g3
Ntp1045
Rp1046
(lp1047
F-0.47934749722480774
aF4.80496072769165
aF0.30062443017959595
abag1
(g2
g3
Ntp1048
Rp1049
(lp1050
F-0.4744451940059662
aF4.815888404846191
aF0.30072253942489624
abag1
(g2
g3
Ntp1051
Rp1052
(lp1053
F-0.44213879108428955
aF4.814737319946289
aF0.30079758167266846
abag1
(g2
g3
Ntp1054
Rp1055
(lp1056
F-0.43727919459342957
aF4.825827121734619
aF0.30089685320854187
abag1
(g2
g3
Ntp1057
Rp1058
(lp1059
F-0.4324682652950287
aF4.83693790435791
aF0.30099618434906006
abag1
(g2
g3
Ntp1060
Rp1061
(lp1062
F-0.4286263883113861
aF4.848461151123047
aF0.30109620094299316
abag1
(g2
g3
Ntp1063
Rp1064
(lp1065
F-0.4441970884799957
aF4.868130207061768
aF0.30120936036109924
abag1
(g2
g3
Ntp1066
Rp1067
(lp1068
F-0.43957072496414185
aF4.879210948944092
aF0.30130794644355774
abag1
(g2
g3
Ntp1069
Rp1070
(lp1071
F-0.43499264121055603
aF4.890311241149902
aF0.3014065623283386
abag1
(g2
g3
Ntp1072
Rp1073
(lp1074
F-0.43046310544013977
aF4.901431560516357
aF0.3015052378177643
abag1
(g2
g3
Ntp1075
Rp1076
(lp1077
F-0.37862515449523926
aF4.893642902374268
aF0.30157923698425293
abag1
(g2
g3
Ntp1078
Rp1079
(lp1080
F0.01496761292219162
aF4.914700984954834
aF0.30276763439178467
abag1
(g2
g3
Ntp1081
Rp1082
(lp1083
F0.039297088980674744
aF4.921108245849609
aF0.30288100242614746
abag1
(g2
g3
Ntp1084
Rp1085
(lp1086
F0.05698064714670181
aF4.929904937744141
aF0.3029957115650177
abag1
(g2
g3
Ntp1087
Rp1088
(lp1089
F0.06133263558149338
aF4.943171501159668
aF0.30311065912246704
abag1
(g2
g3
Ntp1090
Rp1091
(lp1092
F-2.3633363246917725
aF5.841204643249512
aF0.3038186728954315
abag1
(g2
g3
Ntp1093
Rp1094
(lp1095
F-2.3800086975097656
aF5.851741313934326
aF0.30385759472846985
abag1
(g2
g3
Ntp1096
Rp1097
(lp1098
F-2.379655599594116
aF5.854366302490234
aF0.3038790225982666
abag1
(g2
g3
Ntp1099
Rp1100
(lp1101
F-2.4445865154266357
aF5.898449897766113
aF0.30405449867248535
abag1
(g2
g3
Ntp1102
Rp1103
(lp1104
F-2.2284836769104004
aF5.923638343811035
aF0.3048134446144104
abag1
(g2
g3
Ntp1105
Rp1106
(lp1107
F-2.2284457683563232
aF5.9269232749938965
aF0.30483922362327576
abag1
(g2
g3
Ntp1108
Rp1109
(lp1110
F-2.228422164916992
aF5.930208683013916
aF0.30486494302749634
abag1
(g2
g3
Ntp1111
Rp1112
(lp1113
F-2.491901159286499
aF5.972188949584961
aF0.30450746417045593
abag1
(g2
g3
Ntp1114
Rp1115
(lp1116
F-2.501042127609253
aF5.97358512878418
aF0.30449458956718445
abag1
(g2
g3
Ntp1117
Rp1118
(lp1119
F-2.5012195110321045
aF5.975680828094482
aF0.3045105040073395
abag1
(g2
g3
Ntp1120
Rp1121
(lp1122
F-2.5024020671844482
aF5.977684497833252
aF0.3045230805873871
abag1
(g2
g3
Ntp1123
Rp1124
(lp1125
F-2.5025973320007324
aF5.979773998260498
aF0.30453890562057495
abag1
(g2
g3
Ntp1126
Rp1127
(lp1128
F-2.5028016567230225
aF5.981863021850586
aF0.30455470085144043
abag1
(g2
g3
Ntp1129
Rp1130
(lp1131
F-2.5030150413513184
aF5.983950614929199
aF0.30457043647766113
abag1
(g2
g3
Ntp1132
Rp1133
(lp1134
F-2.505225896835327
aF5.98582124710083
aF0.30457931756973267
abag1
(g2
g3
Ntp1135
Rp1136
(lp1137
F-2.515131950378418
aF5.9929938316345215
aF0.3046095669269562
abag1
(g2
g3
Ntp1138
Rp1139
(lp1140
F-2.5153939723968506
aF5.995027542114258
aF0.3046247661113739
abag1
(g2
g3
Ntp1141
Rp1142
(lp1143
F-2.516655683517456
aF5.996926307678223
aF0.3046363294124603
abag1
(g2
g3
Ntp1144
Rp1145
(lp1146
F-2.517925262451172
aF5.998815059661865
aF0.3046477735042572
abag1
(g2
g3
Ntp1147
Rp1148
(lp1149
F-2.5182125568389893
aF6.000836372375488
aF0.304662823677063
abag1
(g2
g3
Ntp1150
Rp1151
(lp1152
F-2.517519474029541
aF6.00300407409668
aF0.30468156933784485
abag1
(g2
g3
Ntp1153
Rp1154
(lp1155
F-2.515848398208618
aF6.005330562591553
aF0.30470407009124756
abag1
(g2
g3
Ntp1156
Rp1157
(lp1158
F-2.515176296234131
aF6.007516860961914
aF0.3047229051589966
abag1
(g2
g3
Ntp1159
Rp1160
(lp1161
F-2.506512403488159
aF6.032439708709717
aF0.3049401640892029
abag1
(g2
g3
Ntp1162
Rp1163
(lp1164
F-2.506946563720703
aF6.034510612487793
aF0.30495521426200867
abag1
(g2
g3
Ntp1165
Rp1166
(lp1167
F-2.507389783859253
aF6.0365800857543945
aF0.3049702048301697
abag1
(g2
g3
Ntp1168
Rp1169
(lp1170
F-2.501006841659546
aF6.040157794952393
aF0.3050147593021393
abag1
(g2
g3
Ntp1171
Rp1172
(lp1173
F-2.495621919631958
aF6.043573379516602
aF0.3050554692745209
abag1
(g2
g3
Ntp1174
Rp1175
(lp1176
F-2.4961047172546387
aF6.045691967010498
aF0.30507075786590576
abag1
(g2
g3
Ntp1177
Rp1178
(lp1179
F-2.48686146736145
aF6.050093650817871
aF0.30512920022010803
abag1
(g2
g3
Ntp1180
Rp1181
(lp1182
F-2.5349831581115723
aF6.074420928955078
aF0.30519405007362366
abag1
(g2
g3
Ntp1183
Rp1184
(lp1185
F-2.535600185394287
aF6.076367378234863
aF0.30520763993263245
abag1
(g2
g3
Ntp1186
Rp1187
(lp1188
F0.36620032787323
aF7.300948143005371
aF0.3223230242729187
abag1
(g2
g3
Ntp1189
Rp1190
(lp1191
F0.34449344873428345
aF7.309046268463135
aF0.3223298192024231
abag1
(g2
g3
Ntp1192
Rp1193
(lp1194
F0.33384960889816284
aF7.321614742279053
aF0.3224003314971924
abag1
(g2
g3
Ntp1195
Rp1196
(lp1197
F0.332366406917572
aF7.338016986846924
aF0.3225246071815491
abag1
(g2
g3
Ntp1198
Rp1199
(lp1200
F0.3216131925582886
aF7.350492000579834
aF0.3225940763950348
abag1
(g2
g3
Ntp1201
Rp1202
(lp1203
F0.31540054082870483
aF7.364890098571777
aF0.3226903975009918
abag1
(g2
g3
Ntp1204
Rp1205
(lp1206
F0.30912521481513977
aF7.379261493682861
aF0.3227863609790802
abag1
(g2
g3
Ntp1207
Rp1208
(lp1209
F0.3179435431957245
aF7.52271842956543
aF0.3239299952983856
abag1
(g2
g3
Ntp1210
Rp1211
(lp1212
F0.3109796643257141
aF7.5370988845825195
aF0.3240242302417755
abag1
(g2
g3
Ntp1213
Rp1214
(lp1215
F0.3039528429508209
aF7.551449298858643
aF0.324118047952652
abag1
(g2
g3
Ntp1216
Rp1217
(lp1218
F0.12502503395080566
aF7.635564804077148
aF0.32430970668792725
abag1
(g2
g3
Ntp1219
Rp1220
(lp1221
F0.11757044494152069
aF7.649102687835693
aF0.3243960738182068
abag1
(g2
g3
Ntp1222
Rp1223
(lp1224
F-0.34184014797210693
aF7.66207218170166
aF0.3233022689819336
abag1
(g2
g3
Ntp1225
Rp1226
(lp1227
F-2.7252519130706787
aF6.1467461585998535
aF0.30526408553123474
abag1
(g2
g3
Ntp1228
Rp1229
(lp1230
F-2.766387701034546
aF6.143177032470703
aF0.30512920022010803
abag1
(g2
g3
Ntp1231
Rp1232
(lp1233
F-2.7673025131225586
aF6.144113540649414
aF0.3051341474056244
abag1
(g2
g3
Ntp1234
Rp1235
(lp1236
F-2.768221616744995
aF6.145045757293701
aF0.30513903498649597
abag1
(g2
g3
Ntp1237
Rp1238
(lp1239
F-2.7691445350646973
aF6.1459736824035645
aF0.30514389276504517
abag1
(g2
g3
Ntp1240
Rp1241
(lp1242
F-2.7664356231689453
aF6.164216041564941
aF0.3052934408187866
abag1
(g2
g3
Ntp1243
Rp1244
(lp1245
F-2.767442226409912
aF6.165151596069336
aF0.3052981197834015
abag1
(g2
g3
Ntp1246
Rp1247
(lp1248
F-1.3927263021469116
aF7.875839710235596
aF0.3222384750843048
abag1
(g2
g3
Ntp1249
Rp1250
(lp1251
F-1.4012147188186646
aF7.882753372192383
aF0.32227039337158203
abag1
(g2
g3
Ntp1252
Rp1253
(lp1254
F-1.4097331762313843
aF7.889629364013672
aF0.3223019540309906
abag1
(g2
g3
Ntp1255
Rp1256
(lp1257
F-0.9222130179405212
aF8.982576370239258
aF0.33210843801498413
abag1
(g2
g3
Ntp1258
Rp1259
(lp1260
F-0.9355350732803345
aF8.991532325744629
aF0.33214375376701355
abag1
(g2
g3
Ntp1261
Rp1262
(lp1263
F-2.2853777408599854
aF7.090672492980957
aF0.3137824833393097
abag1
(g2
g3
Ntp1264
Rp1265
(lp1266
F-2.2965734004974365
aF7.083389759063721
aF0.3136964440345764
abag1
(g2
g3
Ntp1267
Rp1268
(lp1269
F-2.3071842193603516
aF7.076893329620361
aF0.31361809372901917
abag1
(g2
g3
Ntp1270
Rp1271
(lp1272
F-2.3192381858825684
aF7.067735195159912
aF0.31351518630981445
abag1
(g2
g3
Ntp1273
Rp1274
(lp1275
F-2.3332014083862305
aF7.055031776428223
aF0.3133796453475952
abag1
(g2
g3
Ntp1276
Rp1277
(lp1278
F-2.33909273147583
aF7.0561137199401855
aF0.31337276101112366
abag1
(g2
g3
Ntp1279
Rp1280
(lp1281
F-2.3449811935424805
aF7.057165622711182
aF0.3133656680583954
abag1
(g2
g3
Ntp1282
Rp1283
(lp1284
F-2.3493990898132324
aF7.06080436706543
aF0.3133825957775116
abag1
(g2
g3
Ntp1285
Rp1286
(lp1287
F-2.3577194213867188
aF7.057431221008301
aF0.313334584236145
abag1
(g2
g3
Ntp1288
Rp1289
(lp1290
F-2.36503529548645
aF7.055759906768799
aF0.31330251693725586
abag1
(g2
g3
Ntp1291
Rp1292
(lp1293
F-2.369935989379883
aF7.058438777923584
aF0.3133106827735901
abag1
(g2
g3
Ntp1294
Rp1295
(lp1296
F-2.3748483657836914
aF7.06109619140625
aF0.31331866979599
abag1
(g2
g3
Ntp1297
Rp1298
(lp1299
F-2.379772186279297
aF7.063732147216797
aF0.3133264482021332
abag1
(g2
g3
Ntp1300
Rp1301
(lp1302
F-2.3865721225738525
aF7.062808036804199
aF0.31330153346061707
abag1
(g2
g3
Ntp1303
Rp1304
(lp1305
F-2.3905789852142334
aF7.067165851593018
aF0.3133251667022705
abag1
(g2
g3
Ntp1306
Rp1307
(lp1308
F-2.392320156097412
aF7.075953960418701
aF0.31338930130004883
abag1
(g2
g3
Ntp1309
Rp1310
(lp1311
F-2.397763252258301
aF7.077622890472412
aF0.3133881688117981
abag1
(g2
g3
Ntp1312
Rp1313
(lp1314
F-2.402758836746216
aF7.080158710479736
aF0.3133949935436249
abag1
(g2
g3
Ntp1315
Rp1316
(lp1317
F-2.4073190689086914
aF7.083567142486572
aF0.3134097456932068
abag1
(g2
g3
Ntp1318
Rp1319
(lp1320
F-2.4074692726135254
aF7.09592342376709
aF0.3135058879852295
abag1
(g2
g3
Ntp1321
Rp1322
(lp1323
F-2.4107890129089355
aF7.102010250091553
aF0.3135448098182678
abag1
(g2
g3
Ntp1324
Rp1325
(lp1326
F-2.4154560565948486
aF7.105389595031738
aF0.31355905532836914
abag1
(g2
g3
Ntp1327
Rp1328
(lp1329
F-2.4205727577209473
aF7.107847690582275
aF0.3135649561882019
abag1
(g2
g3
Ntp1330
Rp1331
(lp1332
F-2.4257001876831055
aF7.110283851623535
aF0.31357064843177795
abag1
(g2
g3
Ntp1333
Rp1334
(lp1335
F-2.428722381591797
aF7.117227554321289
aF0.3136170208454132
abag1
(g2
g3
Ntp1336
Rp1337
(lp1338
F-2.4326329231262207
aF7.122351169586182
aF0.3136468827724457
abag1
(g2
g3
Ntp1339
Rp1340
(lp1341
F-2.4357471466064453
aF7.1292829513549805
aF0.31369292736053467
abag1
(g2
g3
Ntp1342
Rp1343
(lp1344
F-2.4409680366516113
aF7.131652355194092
aF0.31369784474372864
abag1
(g2
g3
Ntp1345
Rp1346
(lp1347
F-2.440089464187622
aF7.147697925567627
aF0.31382548809051514
abag1
(g2
g3
Ntp1348
Rp1349
(lp1350
F-2.5149176120758057
aF7.248626708984375
aF0.31441929936408997
abag1
(g2
g3
Ntp1351
Rp1352
(lp1353
F-2.5299065113067627
aF7.224222183227539
aF0.3141896724700928
abag1
(g2
g3
Ntp1354
Rp1355
(lp1356
F-2.539128541946411
aF7.2157816886901855
aF0.3140997290611267
abag1
(g2
g3
Ntp1357
Rp1358
(lp1359
F-2.547302007675171
aF7.2101263999938965
aF0.31403428316116333
abag1
(g2
g3
Ntp1360
Rp1361
(lp1362
F-2.5528745651245117
aF7.212008476257324
aF0.31403449177742004
abag1
(g2
g3
Ntp1363
Rp1364
(lp1365
F-2.558455228805542
aF7.213865756988525
aF0.31403449177742004
abag1
(g2
g3
Ntp1366
Rp1367
(lp1368
F-2.5643534660339355
aF7.214748382568359
aF0.31402602791786194
abag1
(g2
g3
Ntp1369
Rp1370
(lp1371
F-2.5766663551330566
aF7.195608615875244
aF0.3138444721698761
abag1
(g2
g3
Ntp1372
Rp1373
(lp1374
F-2.584284543991089
aF7.190688133239746
aF0.31378623843193054
abag1
(g2
g3
Ntp1375
Rp1376
(lp1377
F-2.590663194656372
aF7.189544677734375
aF0.3137606978416443
abag1
(g2
g3
Ntp1378
Rp1379
(lp1380
F-2.5961453914642334
aF7.191237926483154
aF0.3137596547603607
abag1
(g2
g3
Ntp1381
Rp1382
(lp1383
F-2.60221266746521
aF7.1909918785095215
aF0.3137419521808624
abag1
(g2
g3
Ntp1384
Rp1385
(lp1386
F-2.6082704067230225
aF7.1907172203063965
aF0.3137240707874298
abag1
(g2
g3
Ntp1387
Rp1388
(lp1389
F-2.6140382289886475
aF7.191373825073242
aF0.3137141764163971
abag1
(g2
g3
Ntp1390
Rp1391
(lp1392
F-2.61952805519104
aF7.192965030670166
aF0.31371232867240906
abag1
(g2
g3
Ntp1393
Rp1394
(lp1395
F-2.6258411407470703
aF7.19164514541626
aF0.3136855959892273
abag1
(g2
g3
Ntp1396
Rp1397
(lp1398
F-2.6313323974609375
aF7.193184852600098
aF0.31368333101272583
abag1
(g2
g3
Ntp1399
Rp1400
(lp1401
F-2.636302947998047
aF7.196629524230957
aF0.31369730830192566
abag1
(g2
g3
Ntp1402
Rp1403
(lp1404
F-2.641815662384033
aF7.198123455047607
aF0.31369465589523315
abag1
(g2
g3
Ntp1405
Rp1406
(lp1407
F-2.6473348140716553
aF7.1995930671691895
aF0.31369176506996155
abag1
(g2
g3
Ntp1408
Rp1409
(lp1410
F-2.6485936641693115
aF7.217494010925293
aF0.31382834911346436
abag1
(g2
g3
Ntp1411
Rp1412
(lp1413
F-2.6541972160339355
aF7.218934059143066
aF0.31382501125335693
abag1
(g2
g3
Ntp1414
Rp1415
(lp1416
F-2.6590795516967773
aF7.223259925842285
aF0.3138461112976074
abag1
(g2
g3
Ntp1417
Rp1418
(lp1419
F-2.664708375930786
aF7.224654197692871
aF0.3138423562049866
abag1
(g2
g3
Ntp1420
Rp1421
(lp1422
F-2.6680023670196533
aF7.235745906829834
aF0.31392043828964233
abag1
(g2
g3
Ntp1423
Rp1424
(lp1425
F-2.3526771068573
aF9.579036712646484
aF0.3330468237400055
abag1
(g2
g3
Ntp1426
Rp1427
(lp1428
F-2.569448471069336
aF9.271549224853516
aF0.3300807774066925
abag1
(g2
g3
Ntp1429
Rp1430
(lp1431
F-2.5840156078338623
aF9.2733154296875
aF0.33005669713020325
abag1
(g2
g3
Ntp1432
Rp1433
(lp1434
F-2.59859037399292
aF9.275017738342285
aF0.330032080411911
abag1
(g2
g3
Ntp1435
Rp1436
(lp1437
F-2.5415613651275635
aF13.051182746887207
aF0.35968032479286194
abag1
(g2
g3
Ntp1438
Rp1439
(lp1440
F-2.5760602951049805
aF12.993135452270508
aF0.3591371178627014
abag1
(g2
g3
Ntp1441
Rp1442
(lp1443
F-2.6094088554382324
aF12.946906089782715
aF0.35868921875953674
abag1
(g2
g3
Ntp1444
Rp1445
(lp1446
F-2.641373872756958
aF12.920496940612793
aF0.35839974880218506
abag1
(g2
g3
Ntp1447
Rp1448
(lp1449
F-2.6718623638153076
aF12.921915054321289
aF0.35833150148391724
abag1
(g2
g3
Ntp1450
Rp1451
(lp1452
F-2.7027556896209717
aF12.9132080078125
aF0.3581831157207489
abag1
(g2
g3
Ntp1453
Rp1454
(lp1455
F-2.732536554336548
aF12.933345794677734
aF0.3582629859447479
abag1
(g2
g3
Ntp1456
Rp1457
(lp1458
F-2.7618019580841064
aF12.97534465789795
aF0.3585149347782135
abag1
(g2
g3
Ntp1459
Rp1460
(lp1461
F-2.7922070026397705
aF12.988231658935547
aF0.3585365116596222
abag1
(g2
g3
Ntp1462
Rp1463
(lp1464
F-2.822450637817383
aF13.012983322143555
aF0.35865122079849243
abag1
(g2
g3
Ntp1465
Rp1466
(lp1467
F-2.8531057834625244
aF13.026607513427734
aF0.3586778938770294
abag1
(g2
g3
Ntp1468
Rp1469
(lp1470
F-2.883711814880371
aF13.05209732055664
aF0.3587974011898041
abag1
(g2
g3
Ntp1471
Rp1472
(lp1473
F-2.9139859676361084
aF13.13645076751709
aF0.3593776226043701
abag1
(g2
g3
Ntp1474
Rp1475
(lp1476
F-2.945413827896118
aF13.136676788330078
aF0.35929763317108154
abag1
(g2
g3
Ntp1477
Rp1478
(lp1479
F-3.3456127643585205
aF11.545016288757324
aF0.3458223044872284
abag1
(g2
g3
Ntp1480
Rp1481
(lp1482
F-3.3700926303863525
aF11.543374061584473
aF0.3457457721233368
abag1
(g2
g3
Ntp1483
Rp1484
(lp1485
F-3.393977165222168
aF11.533646583557129
aF0.3456076681613922
abag1
(g2
g3
Ntp1486
Rp1487
(lp1488
F-3.4184069633483887
aF11.531794548034668
aF0.3455296456813812
abag1
(g2
g3
Ntp1489
Rp1490
(lp1491
F-3.657634973526001
aF11.902634620666504
aF0.34780436754226685
abag1
(g2
g3
Ntp1492
Rp1493
(lp1494
F-3.6911542415618896
aF11.963188171386719
aF0.34819021821022034
abag1
(g2
g3
Ntp1495
Rp1496
(lp1497
F-3.722790002822876
aF12.003707885742188
aF0.3484244644641876
abag1
(g2
g3
Ntp1498
Rp1499
(lp1500
F-3.759187698364258
aF12.078787803649902
aF0.34891632199287415
abag1
(g2
g3
Ntp1501
Rp1502
(lp1503
F-3.790928602218628
aF12.11301326751709
aF0.34910112619400024
abag1
(g2
g3
Ntp1504
Rp1505
(lp1506
F-3.8243253231048584
aF12.156988143920898
aF0.3493577539920807
abag1
(g2
g3
Ntp1507
Rp1508
(lp1509
F-3.851470708847046
aF12.153251647949219
aF0.3492579460144043
abag1
(g2
g3
Ntp1510
Rp1511
(lp1512
F-3.8854570388793945
aF12.196903228759766
aF0.3495105504989624
abag1
(g2
g3
Ntp1513
Rp1514
(lp1515
F-3.9148366451263428
aF12.206746101379395
aF0.3495110273361206
abag1
(g2
g3
Ntp1516
Rp1517
(lp1518
F-3.9444708824157715
aF12.217440605163574
aF0.34951749444007874
abag1
(g2
g3
Ntp1519
Rp1520
(lp1521
F-3.977332592010498
aF12.247751235961914
aF0.34966880083084106
abag1
(g2
g3
Ntp1522
Rp1523
(lp1524
F-4.009515762329102
aF12.271971702575684
aF0.3497742712497711
abag1
(g2
g3
Ntp1525
Rp1526
(lp1527
F-4.039463043212891
aF12.281234741210938
aF0.349768728017807
abag1
(g2
g3
Ntp1528
Rp1529
(lp1530
F-4.073223114013672
aF12.312041282653809
aF0.3499215841293335
abag1
(g2
g3
Ntp1531
Rp1532
(lp1533
F-4.106752395629883
aF12.33971881866455
aF0.35005056858062744
abag1
(g2
g3
Ntp1534
Rp1535
(lp1536
F-4.140721321105957
aF12.368208885192871
aF0.35018476843833923
abag1
(g2
g3
Ntp1537
Rp1538
(lp1539
F-4.171509742736816
aF12.377840042114258
aF0.35017991065979004
abag1
(g2
g3
Ntp1540
Rp1541
(lp1542
F-4.206679821014404
aF12.409923553466797
aF0.35033905506134033
abag1
(g2
g3
Ntp1543
Rp1544
(lp1545
F-4.241201400756836
aF12.43691349029541
aF0.35046011209487915
abag1
(g2
g3
Ntp1546
Rp1547
(lp1548
F-4.274036884307861
aF12.4539155960083
aF0.350507527589798
abag1
(g2
g3
Ntp1549
Rp1550
(lp1551
F-4.3056535720825195
aF12.46389389038086
aF0.35050323605537415
abag1
(g2
g3
Ntp1552
Rp1553
(lp1554
F-4.3412394523620605
aF12.492324829101562
aF0.35063275694847107
abag1
(g2
g3
Ntp1555
Rp1556
(lp1557
F-4.369843482971191
aF12.486329078674316
aF0.3505115211009979
abag1
(g2
g3
Ntp1558
Rp1559
(lp1560
F-4.412383556365967
aF12.544713973999023
aF0.3508569598197937
abag1
(g2
g3
Ntp1561
Rp1562
(lp1563
F-4.4412150382995605
aF12.538408279418945
aF0.350732684135437
abag1
(g2
g3
Ntp1564
Rp1565
(lp1566
F-4.784827709197998
aF11.108617782592773
aF0.338669091463089
abag1
(g2
g3
Ntp1567
Rp1568
(lp1569
F-4.807389736175537
aF11.100701332092285
aF0.33854854106903076
aba.