(lp0
ccopy_reg
_reconstructor
p1
(cgeometry_msgs.msg._Point32
Point32
p2
c__builtin__
object
p3
Ntp4
Rp5
(lp6
F-4.771650791168213
aF5.904336452484131
aF0.30413705110549927
abag1
(g2
g3
Ntp7
Rp8
(lp9
F-6.523801326751709
aF5.247189998626709
aF0.3055863380432129
abag1
(g2
g3
Ntp10
Rp11
(lp12
F-6.492151737213135
aF5.240322589874268
aF0.3054947853088379
abag1
(g2
g3
Ntp13
Rp14
(lp15
F-6.463358402252197
aF5.232767581939697
aF0.3054068982601166
abag1
(g2
g3
Ntp16
Rp17
(lp18
F-6.456372261047363
aF5.2181243896484375
aF0.30534088611602783
abag1
(g2
g3
Ntp19
Rp20
(lp21
F-6.441751480102539
aF5.206098556518555
aF0.30526766180992126
abag1
(g2
g3
Ntp22
Rp23
(lp24
F-6.434654712677002
aF5.191566467285156
aF0.30520179867744446
abag1
(g2
g3
Ntp25
Rp26
(lp27
F-6.428441524505615
aF5.176743507385254
aF0.3051367998123169
abag1
(g2
g3
Ntp28
Rp29
(lp30
F-6.412741184234619
aF5.165297985076904
aF0.30506330728530884
abag1
(g2
g3
Ntp31
Rp32
(lp33
F-6.39324426651001
aF5.15532112121582
aF0.304986834526062
abag1
(g2
g3
Ntp34
Rp35
(lp36
F-6.377483367919922
aF5.144120216369629
aF0.30491408705711365
abag1
(g2
g3
Ntp37
Rp38
(lp39
F-6.3532490730285645
aF5.136155128479004
aF0.3048345148563385
abag1
(g2
g3
Ntp40
Rp41
(lp42
F-6.33556604385376
aF5.125920295715332
aF0.30476102232933044
abag1
(g2
g3
Ntp43
Rp44
(lp45
F-6.330010890960693
aF5.111199378967285
aF0.30469778180122375
abag1
(g2
g3
Ntp46
Rp47
(lp48
F-6.309459209442139
aF5.102250576019287
aF0.3046226501464844
abag1
(g2
g3
Ntp49
Rp50
(lp51
F-6.297279357910156
aF5.090186595916748
aF0.3045545220375061
abag1
(g2
g3
Ntp52
Rp53
(lp54
F-6.2757568359375
aF5.081877708435059
aF0.30447956919670105
abag1
(g2
g3
Ntp55
Rp56
(lp57
F-6.248654842376709
aF5.075960159301758
aF0.3044010102748871
abag1
(g2
g3
Ntp58
Rp59
(lp60
F-6.225272178649902
aF5.068751811981201
aF0.3043259084224701
abag1
(g2
g3
Ntp61
Rp62
(lp63
F-6.218543529510498
aF5.054892539978027
aF0.304263174533844
abag1
(g2
g3
Ntp64
Rp65
(lp66
F-6.212679386138916
aF5.040683269500732
aF0.30420106649398804
abag1
(g2
g3
Ntp67
Rp68
(lp69
F-6.187394618988037
aF5.034637451171875
aF0.30412593483924866
abag1
(g2
g3
Ntp70
Rp71
(lp72
F-6.1814422607421875
aF5.020564079284668
aF0.3040641248226166
abag1
(g2
g3
Ntp73
Rp74
(lp75
F-6.169918537139893
aF5.008890151977539
aF0.30399876832962036
abag1
(g2
g3
Ntp76
Rp77
(lp78
F-6.155603885650635
aF4.9984893798828125
aF0.3039318919181824
abag1
(g2
g3
Ntp79
Rp80
(lp81
F-6.135769844055176
aF4.990608215332031
aF0.3038620054721832
abag1
(g2
g3
Ntp82
Rp83
(lp84
F-6.123233795166016
aF4.979613304138184
aF0.3037968575954437
abag1
(g2
g3
Ntp85
Rp86
(lp87
F-6.109751224517822
aF4.969112396240234
aF0.30373141169548035
abag1
(g2
g3
Ntp88
Rp89
(lp90
F-6.102604389190674
aF4.955794334411621
aF0.30366966128349304
abag1
(g2
g3
Ntp91
Rp92
(lp93
F-6.092677593231201
aF4.943769454956055
aF0.3036065101623535
abag1
(g2
g3
Ntp94
Rp95
(lp96
F-6.0636820793151855
aF4.940695762634277
aF0.3035338222980499
abag1
(g2
g3
Ntp97
Rp98
(lp99
F-6.037431240081787
aF4.936564922332764
aF0.303463339805603
abag1
(g2
g3
Ntp100
Rp101
(lp102
F-6.029248237609863
aF4.924009323120117
aF0.30340203642845154
abag1
(g2
g3
Ntp103
Rp104
(lp105
F-6.0138115882873535
aF4.914979457855225
aF0.30333754420280457
abag1
(g2
g3
Ntp106
Rp107
(lp108
F-6.0010504722595215
aF4.904738903045654
aF0.30327457189559937
abag1
(g2
g3
Ntp109
Rp110
(lp111
F-5.990947246551514
aF4.893252372741699
aF0.30321288108825684
abag1
(g2
g3
Ntp112
Rp113
(lp114
F-5.9745402336120605
aF4.884954452514648
aF0.30314889550209045
abag1
(g2
g3
Ntp115
Rp116
(lp117
F-5.967936992645264
aF4.871811389923096
aF0.303088903427124
abag1
(g2
g3
Ntp118
Rp119
(lp120
F-5.9496989250183105
aF4.864609241485596
aF0.3030248284339905
abag1
(g2
g3
Ntp121
Rp122
(lp123
F-5.940341472625732
aF4.852950096130371
aF0.30296415090560913
abag1
(g2
g3
Ntp124
Rp125
(lp126
F-5.929165363311768
aF4.842269420623779
aF0.3029029965400696
abag1
(g2
g3
Ntp127
Rp128
(lp129
F-5.920607566833496
aF4.830257415771484
aF0.30284279584884644
abag1
(g2
g3
Ntp130
Rp131
(lp132
F-5.907588481903076
aF4.820641994476318
aF0.30278143286705017
abag1
(g2
g3
Ntp133
Rp134
(lp135
F-5.8936614990234375
aF4.811583995819092
aF0.3027200698852539
abag1
(g2
g3
Ntp136
Rp137
(lp138
F-5.860386848449707
aF4.8131327629089355
aF0.3026543855667114
abag1
(g2
g3
Ntp139
Rp140
(lp141
F-5.852595329284668
aF4.800970077514648
aF0.3025952875614166
abag1
(g2
g3
Ntp142
Rp143
(lp144
F-5.844752788543701
aF4.788845539093018
aF0.3025362193584442
abag1
(g2
g3
Ntp145
Rp146
(lp147
F-5.83773136138916
aF4.776269435882568
aF0.30247732996940613
abag1
(g2
g3
Ntp148
Rp149
(lp150
F-5.823695659637451
aF4.767669677734375
aF0.3024173378944397
abag1
(g2
g3
Ntp151
Rp152
(lp153
F-5.816582202911377
aF4.755186080932617
aF0.30235859751701355
abag1
(g2
g3
Ntp154
Rp155
(lp156
F-5.795565128326416
aF4.7507452964782715
aF0.3022981882095337
abag1
(g2
g3
Ntp157
Rp158
(lp159
F-5.762475967407227
aF4.753520488739014
aF0.3022371828556061
abag1
(g2
g3
Ntp160
Rp161
(lp162
F-5.748412132263184
aF4.745369911193848
aF0.3021787106990814
abag1
(g2
g3
Ntp163
Rp164
(lp165
F-5.74034309387207
aF4.733726978302002
aF0.3021208345890045
abag1
(g2
g3
Ntp166
Rp167
(lp168
F-5.733082294464111
aF4.721607208251953
aF0.3020630180835724
abag1
(g2
g3
Ntp169
Rp170
(lp171
F-5.725768566131592
aF4.709519386291504
aF0.30200523138046265
abag1
(g2
g3
Ntp172
Rp173
(lp174
F-5.715845584869385
aF4.699033260345459
aF0.3019474148750305
abag1
(g2
g3
Ntp175
Rp176
(lp177
F-5.682937145233154
aF4.702829360961914
aF0.30189037322998047
abag1
(g2
g3
Ntp178
Rp179
(lp180
F-5.670456409454346
aF4.694143772125244
aF0.3018334209918976
abag1
(g2
g3
Ntp181
Rp182
(lp183
F-5.658797264099121
aF4.685001373291016
aF0.30177658796310425
abag1
(g2
g3
Ntp184
Rp185
(lp186
F-5.65132474899292
aF4.6732378005981445
aF0.3017195761203766
abag1
(g2
g3
Ntp187
Rp188
(lp189
F-5.641279220581055
aF4.663132190704346
aF0.3016628623008728
abag1
(g2
g3
Ntp190
Rp191
(lp192
F-5.6286821365356445
aF4.654717445373535
aF0.30160659551620483
abag1
(g2
g3
Ntp193
Rp194
(lp195
F-5.614391326904297
aF4.647477626800537
aF0.3015507757663727
abag1
(g2
g3
Ntp196
Rp197
(lp198
F-5.600921630859375
aF4.639776706695557
aF0.30149513483047485
abag1
(g2
g3
Ntp199
Rp200
(lp201
F-5.586604118347168
aF4.632716655731201
aF0.30143991112709045
abag1
(g2
g3
Ntp202
Rp203
(lp204
F-5.578904151916504
aF4.6212687492370605
aF0.30138352513313293
abag1
(g2
g3
Ntp205
Rp206
(lp207
F-5.5711541175842285
aF4.609854221343994
aF0.3013271391391754
abag1
(g2
g3
Ntp208
Rp209
(lp210
F-5.5633544921875
aF4.598474025726318
aF0.3012707531452179
abag1
(g2
g3
Ntp211
Rp212
(lp213
F-5.555505275726318
aF4.587127685546875
aF0.30121439695358276
abag1
(g2
g3
Ntp214
Rp215
(lp216
F-5.520590782165527
aF4.5947675704956055
aF0.30116647481918335
abag1
(g2
g3
Ntp217
Rp218
(lp219
F-5.503748416900635
aF4.589964389801025
aF0.30111372470855713
abag1
(g2
g3
Ntp220
Rp221
(lp222
F-5.4958624839782715
aF4.578878402709961
aF0.30105820298194885
abag1
(g2
g3
Ntp223
Rp224
(lp225
F-5.48387336730957
aF4.570751190185547
aF0.30100423097610474
abag1
(g2
g3
Ntp226
Rp227
(lp228
F-5.474287033081055
aF4.560929298400879
aF0.30094945430755615
abag1
(g2
g3
Ntp229
Rp230
(lp231
F-5.4638566970825195
aF4.551747798919678
aF0.3008951246738434
abag1
(g2
g3
Ntp232
Rp233
(lp234
F-5.442951202392578
aF4.550364971160889
aF0.3008456528186798
abag1
(g2
g3
Ntp235
Rp236
(lp237
F-5.4348931312561035
aF4.539544105529785
aF0.3007906675338745
abag1
(g2
g3
Ntp238
Rp239
(lp240
F-5.425989627838135
aF4.529361724853516
aF0.30073612928390503
abag1
(g2
g3
Ntp241
Rp242
(lp243
F-5.4162492752075195
aF4.519827365875244
aF0.30068203806877136
abag1
(g2
g3
Ntp244
Rp245
(lp246
F-5.404094219207764
aF4.512170791625977
aF0.3006293475627899
abag1
(g2
g3
Ntp247
Rp248
(lp249
F-5.391129016876221
aF4.505198001861572
aF0.3005773425102234
abag1
(g2
g3
Ntp250
Rp251
(lp252
F-5.382086753845215
aF4.495220184326172
aF0.30052319169044495
abag1
(g2
g3
Ntp253
Rp254
(lp255
F-5.3698649406433105
aF4.487764835357666
aF0.30047106742858887
abag1
(g2
g3
Ntp256
Rp257
(lp258
F-5.353713512420654
aF4.483495712280273
aF0.30042165517807007
abag1
(g2
g3
Ntp259
Rp260
(lp261
F-5.340688705444336
aF4.47682523727417
aF0.30037057399749756
abag1
(g2
g3
Ntp262
Rp263
(lp264
F-5.326874732971191
aF4.470861434936523
aF0.30032023787498474
abag1
(g2
g3
Ntp265
Rp266
(lp267
F-5.316923141479492
aF4.461814880371094
aF0.30026742815971375
abag1
(g2
g3
Ntp268
Rp269
(lp270
F-5.3084797859191895
aF4.451545238494873
aF0.3002135455608368
abag1
(g2
g3
Ntp271
Rp272
(lp273
F-5.295382022857666
aF4.44515323638916
aF0.30016323924064636
abag1
(g2
g3
Ntp274
Rp275
(lp276
F-5.278446197509766
aF4.442055702209473
aF0.30011627078056335
abag1
(g2
g3
Ntp277
Rp278
(lp279
F-5.260765075683594
aF4.439715385437012
aF0.30007031559944153
abag1
(g2
g3
Ntp280
Rp281
(lp282
F-5.252225875854492
aF4.429690837860107
aF0.3000170886516571
abag1
(g2
g3
Ntp283
Rp284
(lp285
F-5.243643283843994
aF4.419703960418701
aF0.29996392130851746
abag1
(g2
g3
Ntp286
Rp287
(lp288
F-5.235016822814941
aF4.409754276275635
aF0.2999107539653778
abag1
(g2
g3
Ntp289
Rp290
(lp291
F-5.22634744644165
aF4.399842739105225
aF0.29985764622688293
abag1
(g2
g3
Ntp292
Rp293
(lp294
F-5.215389728546143
aF4.391958236694336
aF0.29980674386024475
abag1
(g2
g3
Ntp295
Rp296
(lp297
F-5.202915191650391
aF4.385465145111084
aF0.2997574210166931
abag1
(g2
g3
Ntp298
Rp299
(lp300
F-5.1941399574279785
aF4.375693321228027
aF0.29970458149909973
abag1
(g2
g3
Ntp301
Rp302
(lp303
F-5.186061382293701
aF4.3652873039245605
aF0.29965099692344666
abag1
(g2
g3
Ntp304
Rp305
(lp306
F-5.169831275939941
aF4.362351894378662
aF0.2996060848236084
abag1
(g2
g3
Ntp307
Rp308
(lp309
F-5.157287120819092
aF4.356122016906738
aF0.29955756664276123
abag1
(g2
g3
Ntp310
Rp311
(lp312
F-5.148384094238281
aF4.346549987792969
aF0.2995051145553589
abag1
(g2
g3
Ntp313
Rp314
(lp315
F-5.135073184967041
aF4.341131687164307
aF0.2994577884674072
abag1
(g2
g3
Ntp316
Rp317
(lp318
F-5.12393045425415
aF4.333723545074463
aF0.2994081377983093
abag1
(g2
g3
Ntp319
Rp320
(lp321
F-5.1134867668151855
aF4.325681209564209
aF0.29935774207115173
abag1
(g2
g3
Ntp322
Rp323
(lp324
F-5.095826625823975
aF4.324644088745117
aF0.29931640625
abag1
(g2
g3
Ntp325
Rp326
(lp327
F-5.082492828369141
aF4.319530963897705
aF0.2992700934410095
abag1
(g2
g3
Ntp328
Rp329
(lp330
F-5.073431015014648
aF4.310285568237305
aF0.29921844601631165
abag1
(g2
g3
Ntp331
Rp332
(lp333
F-5.06220006942749
aF4.30319356918335
aF0.29916971921920776
abag1
(g2
g3
Ntp334
Rp335
(lp336
F-5.046709060668945
aF4.300406455993652
aF0.29912689328193665
abag1
(g2
g3
Ntp337
Rp338
(lp339
F-5.040377616882324
aF4.288473606109619
aF0.299071729183197
abag1
(g2
g3
Ntp340
Rp341
(lp342
F-5.029079914093018
aF4.281553745269775
aF0.29902344942092896
abag1
(g2
g3
Ntp343
Rp344
(lp345
F-5.019155502319336
aF4.273259162902832
aF0.29897329211235046
abag1
(g2
g3
Ntp346
Rp347
(lp348
F-5.010586738586426
aF4.263570308685303
aF0.2989211976528168
abag1
(g2
g3
Ntp349
Rp350
(lp351
F-5.0026631355285645
aF4.253193378448486
aF0.2988680303096771
abag1
(g2
g3
Ntp352
Rp353
(lp354
F-4.993312358856201
aF4.244296550750732
aF0.2988170087337494
abag1
(g2
g3
Ntp355
Rp356
(lp357
F-4.983922958374023
aF4.235441207885742
aF0.29876604676246643
abag1
(g2
g3
Ntp358
Rp359
(lp360
F-4.9744954109191895
aF4.226626396179199
aF0.29871514439582825
abag1
(g2
g3
Ntp361
Rp362
(lp363
F-4.952822208404541
aF4.231081485748291
aF0.29868441820144653
abag1
(g2
g3
Ntp364
Rp365
(lp366
F-4.943375587463379
aF4.222402572631836
aF0.2986339330673218
abag1
(g2
g3
Ntp367
Rp368
(lp369
F-4.933891296386719
aF4.2137651443481445
aF0.2985835373401642
abag1
(g2
g3
Ntp370
Rp371
(lp372
F-4.924369812011719
aF4.205169200897217
aF0.29853320121765137
abag1
(g2
g3
Ntp373
Rp374
(lp375
F-4.916140556335449
aF4.195121765136719
aF0.2984805703163147
abag1
(g2
g3
Ntp376
Rp377
(lp378
F-4.9065375328063965
aF4.18660306930542
aF0.29843032360076904
abag1
(g2
g3
Ntp379
Rp380
(lp381
F-4.898214817047119
aF4.176621913909912
aF0.2983776926994324
abag1
(g2
g3
Ntp382
Rp383
(lp384
F-4.88853120803833
aF4.168181896209717
aF0.29832756519317627
abag1
(g2
g3
Ntp385
Rp386
(lp387
F-4.877506732940674
aF4.161300182342529
aF0.2982800006866455
abag1
(g2
g3
Ntp388
Rp389
(lp390
F-4.8645124435424805
aF4.156755447387695
aF0.2982363700866699
abag1
(g2
g3
Ntp391
Rp392
(lp393
F-4.843769550323486
aF4.161447525024414
aF0.29820844531059265
abag1
(g2
g3
Ntp394
Rp395
(lp396
F-4.834020137786865
aF4.153244972229004
aF0.29815900325775146
abag1
(g2
g3
Ntp397
Rp398
(lp399
F-4.824873924255371
aF4.144315719604492
aF0.2981082797050476
abag1
(g2
g3
Ntp400
Rp401
(lp402
F-4.811872959136963
aF4.14005708694458
aF0.2980656623840332
abag1
(g2
g3
Ntp403
Rp404
(lp405
F-4.8051910400390625
aF4.128119468688965
aF0.2980097234249115
abag1
(g2
g3
Ntp406
Rp407
(lp408
F-4.795296669006348
aF4.120085716247559
aF0.2979605495929718
abag1
(g2
g3
Ntp409
Rp410
(lp411
F-4.785367012023926
aF4.112095355987549
aF0.29791146516799927
abag1
(g2
g3
Ntp412
Rp413
(lp414
F-4.775403022766113
aF4.1041483879089355
aF0.2978624403476715
abag1
(g2
g3
Ntp415
Rp416
(lp417
F-4.765404224395752
aF4.096244812011719
aF0.2978135049343109
abag1
(g2
g3
Ntp418
Rp419
(lp420
F-4.749836444854736
aF4.095481872558594
aF0.29777756333351135
abag1
(g2
g3
Ntp421
Rp422
(lp423
F-4.738577365875244
aF4.089272499084473
aF0.29773184657096863
abag1
(g2
g3
Ntp424
Rp425
(lp426
F-4.728513717651367
aF4.08152961730957
aF0.29768332839012146
abag1
(g2
g3
Ntp427
Rp428
(lp429
F-4.717207908630371
aF4.0754241943359375
aF0.2976378798484802
abag1
(g2
g3
Ntp430
Rp431
(lp432
F-4.709488868713379
aF4.064578056335449
aF0.29758355021476746
abag1
(g2
g3
Ntp433
Rp434
(lp435
F-4.712465763092041
aF4.039323806762695
aF0.2975017726421356
abag1
(g2
g3
Ntp436
Rp437
(lp438
F-4.712285041809082
aF4.018021106719971
aF0.2974270284175873
abag1
(g2
g3
Ntp439
Rp440
(lp441
F-4.701910972595215
aF4.0103936195373535
aF0.2973782420158386
abag1
(g2
g3
Ntp442
Rp443
(lp444
F-4.69737434387207
aF3.9947166442871094
aF0.2973138391971588
abag1
(g2
g3
Ntp445
Rp446
(lp447
F-4.693901538848877
aF3.9774093627929688
aF0.2972460389137268
abag1
(g2
g3
Ntp448
Rp449
(lp450
F-4.693210601806641
aF3.956014394760132
aF0.29716989398002625
abag1
(g2
g3
Ntp451
Rp452
(lp453
F-4.682566165924072
aF3.9484708309173584
aF0.2971208095550537
abag1
(g2
g3
Ntp454
Rp455
(lp456
F-4.698813438415527
aF3.9024503231048584
aF0.2969949245452881
abag1
(g2
g3
Ntp457
Rp458
(lp459
F-4.688504695892334
aF3.8940606117248535
aF0.2969436049461365
abag1
(g2
g3
Ntp460
Rp461
(lp462
F-4.684378623962402
aF3.876643180847168
aF0.2968740165233612
abag1
(g2
g3
Ntp463
Rp464
(lp465
F-4.6784467697143555
aF3.8616950511932373
aF0.2968091666698456
abag1
(g2
g3
Ntp466
Rp467
(lp468
F-4.674651145935059
aF3.843433141708374
aF0.29673731327056885
abag1
(g2
g3
Ntp469
Rp470
(lp471
F-4.663516044616699
aF3.8359718322753906
aF0.296687513589859
abag1
(g2
g3
Ntp472
Rp473
(lp474
F-4.656757831573486
aF3.8218843936920166
aF0.2966238856315613
abag1
(g2
g3
Ntp475
Rp476
(lp477
F-4.657027244567871
aF3.796928882598877
aF0.2965373694896698
abag1
(g2
g3
Ntp478
Rp479
(lp480
F-4.660918712615967
aF3.7660491466522217
aF0.29643791913986206
abag1
(g2
g3
Ntp481
Rp482
(lp483
F-4.6575493812561035
aF3.746025800704956
aF0.2963608503341675
abag1
(g2
g3
Ntp484
Rp485
(lp486
F-4.649744987487793
aF3.7327327728271484
aF0.2962977886199951
abag1
(g2
g3
Ntp487
Rp488
(lp489
F-4.648251533508301
aF3.709303379058838
aF0.2962128221988678
abag1
(g2
g3
Ntp490
Rp491
(lp492
F-4.6471147537231445
aF3.684988498687744
aF0.29612553119659424
abag1
(g2
g3
Ntp493
Rp494
(lp495
F-4.6457977294921875
aF3.660632371902466
aF0.2960377335548401
abag1
(g2
g3
Ntp496
Rp497
(lp498
F-4.645343780517578
aF3.634530544281006
aF0.2959456443786621
abag1
(g2
g3
Ntp499
Rp500
(lp501
F-4.642103672027588
aF3.6126580238342285
aF0.2958624064922333
abag1
(g2
g3
Ntp502
Rp503
(lp504
F-4.6299614906311035
aF3.6053407192230225
aF0.2958109378814697
abag1
(g2
g3
Ntp505
Rp506
(lp507
F-4.617787837982178
aF3.598076820373535
aF0.29575955867767334
abag1
(g2
g3
Ntp508
Rp509
(lp510
F-4.615718364715576
aF3.5736243724823
aF0.295669823884964
abag1
(g2
g3
Ntp511
Rp512
(lp513
F-4.623023986816406
aF3.5327160358428955
aF0.2955426573753357
abag1
(g2
g3
Ntp514
Rp515
(lp516
F-4.619020462036133
aF3.5107531547546387
aF0.2954574525356293
abag1
(g2
g3
Ntp517
Rp518
(lp519
F-4.620306968688965
aF3.4792158603668213
aF0.2953501343727112
abag1
(g2
g3
Ntp520
Rp521
(lp522
F-4.614957809448242
aF3.4589333534240723
aF0.29526790976524353
abag1
(g2
g3
Ntp523
Rp524
(lp525
F-4.607999801635742
aF3.441261053085327
aF0.29519137740135193
abag1
(g2
g3
Ntp526
Rp527
(lp528
F-4.5980143547058105
aF3.4288442134857178
aF0.29512670636177063
abag1
(g2
g3
Ntp529
Rp530
(lp531
F-4.603799343109131
aF3.387512683868408
aF0.2949948310852051
abag1
(g2
g3
Ntp532
Rp533
(lp534
F-4.597821235656738
aF3.367176055908203
aF0.29491108655929565
abag1
(g2
g3
Ntp535
Rp536
(lp537
F-4.592642307281494
aF3.3450722694396973
aF0.2948228716850281
abag1
(g2
g3
Ntp538
Rp539
(lp540
F-4.58823823928833
aF3.3211898803710938
aF0.29473012685775757
abag1
(g2
g3
Ntp541
Rp542
(lp543
F-4.57900857925415
aF3.3061420917510986
aF0.2946578860282898
abag1
(g2
g3
Ntp544
Rp545
(lp546
F-4.579820156097412
aF3.2715933322906494
aF0.29453903436660767
abag1
(g2
g3
Ntp547
Rp548
(lp549
F-4.571675777435303
aF3.253878116607666
aF0.29445981979370117
abag1
(g2
g3
Ntp550
Rp551
(lp552
F-4.567939758300781
aF3.2272608280181885
aF0.2943589389324188
abag1
(g2
g3
Ntp553
Rp554
(lp555
F-4.570291996002197
aF3.188109874725342
aF0.29422733187675476
abag1
(g2
g3
Ntp556
Rp557
(lp558
F-4.557188987731934
aF3.179319381713867
aF0.2941686809062958
abag1
(g2
g3
Ntp559
Rp560
(lp561
F-4.556402206420898
aF3.1454591751098633
aF0.29404881596565247
abag1
(g2
g3
Ntp562
Rp563
(lp564
F-4.551412105560303
aF3.119637966156006
aF0.29394805431365967
abag1
(g2
g3
Ntp565
Rp566
(lp567
F-4.545359134674072
aF3.0956006050109863
aF0.29385122656822205
abag1
(g2
g3
Ntp568
Rp569
(lp570
F-4.538697242736816
aF3.0724570751190186
aF0.2937562167644501
abag1
(g2
g3
Ntp571
Rp572
(lp573
F-4.5356950759887695
aF3.041166067123413
aF0.2936406135559082
abag1
(g2
g3
Ntp574
Rp575
(lp576
F-4.525278568267822
aF3.025251865386963
aF0.29356279969215393
abag1
(g2
g3
Ntp577
Rp578
(lp579
F-4.525199890136719
aF2.9866526126861572
aF0.2934279441833496
abag1
(g2
g3
Ntp580
Rp581
(lp582
F-4.519019603729248
aF2.9607346057891846
aF0.2933242917060852
abag1
(g2
g3
Ntp583
Rp584
(lp585
F-4.5142822265625
aF2.9311578273773193
aF0.2932109236717224
abag1
(g2
g3
Ntp586
Rp587
(lp588
F-4.511345863342285
aF2.8969881534576416
aF0.2930854260921478
abag1
(g2
g3
Ntp589
Rp590
(lp591
F-4.505729675292969
aF2.868272304534912
aF0.29297319054603577
abag1
(g2
g3
Ntp592
Rp593
(lp594
F-4.49153470993042
aF2.858804941177368
aF0.2929098308086395
abag1
(g2
g3
Ntp595
Rp596
(lp597
F-4.489104747772217
aF2.8218204975128174
aF0.29277557134628296
abag1
(g2
g3
Ntp598
Rp599
(lp600
F-4.487551212310791
aF2.7820281982421875
aF0.29263338446617126
abag1
(g2
g3
Ntp601
Rp602
(lp603
F-4.476802825927734
aF2.7634003162384033
aF0.2925454080104828
abag1
(g2
g3
Ntp604
Rp605
(lp606
F-4.472795009613037
aF2.7281622886657715
aF0.2924138605594635
abag1
(g2
g3
Ntp607
Rp608
(lp609
F-4.463974475860596
aF2.70400071144104
aF0.2923106849193573
abag1
(g2
g3
Ntp610
Rp611
(lp612
F-4.460204601287842
aF2.6668620109558105
aF0.29217302799224854
abag1
(g2
g3
Ntp613
Rp614
(lp615
F-4.450962543487549
aF2.6426939964294434
aF0.2920689582824707
abag1
(g2
g3
Ntp616
Rp617
(lp618
F-4.447755336761475
aF2.6027133464813232
aF0.29192256927490234
abag1
(g2
g3
Ntp619
Rp620
(lp621
F-4.448566436767578
aF2.5515027046203613
aF0.2917455732822418
abag1
(g2
g3
Ntp622
Rp623
(lp624
F-4.448958396911621
aF2.500213623046875
aF0.2915674149990082
abag1
(g2
g3
Ntp625
Rp626
(lp627
F-4.436913013458252
aF2.4806530475616455
aF0.2914734184741974
abag1
(g2
g3
Ntp628
Rp629
(lp630
F-4.432062149047852
aF2.441448211669922
aF0.29132622480392456
abag1
(g2
g3
Ntp631
Rp632
(lp633
F-4.424825668334961
aF2.4078423976898193
aF0.29119348526000977
abag1
(g2
g3
Ntp634
Rp635
(lp636
F-4.415958881378174
aF2.3779852390289307
aF0.2910703420639038
abag1
(g2
g3
Ntp637
Rp638
(lp639
F-4.404499530792236
aF2.354720115661621
aF0.29096466302871704
abag1
(g2
g3
Ntp640
Rp641
(lp642
F-4.386870861053467
aF2.348451614379883
aF0.2909051477909088
abag1
(g2
g3
Ntp643
Rp644
(lp645
F-4.36921501159668
aF2.3422603607177734
aF0.2908458113670349
abag1
(g2
g3
Ntp646
Rp647
(lp648
F-4.3352952003479
aF2.3834362030029297
aF0.2909170687198639
abag1
(g2
g3
Ntp649
Rp650
(lp651
F-4.317792892456055
aF2.377469301223755
aF0.2908588647842407
abag1
(g2
g3
Ntp652
Rp653
(lp654
F-4.292036056518555
aF2.396242618560791
aF0.2908693552017212
abag1
(g2
g3
Ntp655
Rp656
(lp657
F-4.265844345092773
aF2.4170632362365723
aF0.2908860743045807
abag1
(g2
g3
Ntp658
Rp659
(lp660
F-4.248180866241455
aF2.412350654602051
aF0.29083189368247986
abag1
(g2
g3
Ntp661
Rp662
(lp663
F-4.220468521118164
aF2.4391539096832275
aF0.2908662259578705
abag1
(g2
g3
Ntp664
Rp665
(lp666
F-4.20111083984375
aF2.4403655529022217
aF0.2908291220664978
abag1
(g2
g3
Ntp667
Rp668
(lp669
F-4.172621250152588
aF2.4712841510772705
aF0.290876179933548
abag1
(g2
g3
Ntp670
Rp671
(lp672
F-4.152296543121338
aF2.476548910140991
aF0.2908511161804199
abag1
(g2
g3
Ntp673
Rp674
(lp675
F-4.1251444816589355
aF2.5049030780792236
aF0.290892094373703
abag1
(g2
g3
Ntp676
Rp677
(lp678
F-4.106758117675781
aF2.504647731781006
aF0.2908519208431244
abag1
(g2
g3
Ntp679
Rp680
(lp681
F-4.089507579803467
aF2.5006370544433594
aF0.290801078081131
abag1
(g2
g3
Ntp682
Rp683
(lp684
F-4.060976982116699
aF2.5361244678497314
aF0.2908639907836914
abag1
(g2
g3
Ntp685
Rp686
(lp687
F-4.043602466583252
aF2.533278703689575
aF0.29081693291664124
abag1
(g2
g3
Ntp688
Rp689
(lp690
F-4.016366958618164
aF2.566173791885376
aF0.29087355732917786
abag1
(g2
g3
Ntp691
Rp692
(lp693
F-3.999664545059204
aF2.5615968704223633
aF0.29082190990448
abag1
(g2
g3
Ntp694
Rp695
(lp696
F-3.982168674468994
aF2.5599913597106934
aF0.2907789349555969
abag1
(g2
g3
Ntp697
Rp698
(lp699
F-3.9611258506774902
aF2.572007417678833
aF0.29077592492103577
abag1
(g2
g3
Ntp700
Rp701
(lp702
F-3.937213182449341
aF2.5957536697387695
aF0.29080772399902344
abag1
(g2
g3
Ntp703
Rp704
(lp705
F-3.916470766067505
aF2.6080024242401123
aF0.2908061444759369
abag1
(g2
g3
Ntp706
Rp707
(lp708
F-3.8963356018066406
aF2.6184186935424805
aF0.29079949855804443
abag1
(g2
g3
Ntp709
Rp710
(lp711
F-3.878204822540283
aF2.6211657524108887
aF0.29077035188674927
abag1
(g2
g3
Ntp712
Rp713
(lp714
F-3.8580222129821777
aF2.6327524185180664
aF0.29076769948005676
abag1
(g2
g3
Ntp715
Rp716
(lp717
F-3.8368167877197266
aF2.64931058883667
aF0.2907801866531372
abag1
(g2
g3
Ntp718
Rp719
(lp720
F-3.8184621334075928
aF2.654287576675415
aF0.290758341550827
abag1
(g2
g3
Ntp721
Rp722
(lp723
F-3.7984089851379395
aF2.6671571731567383
aF0.29076042771339417
abag1
(g2
g3
Ntp724
Rp725
(lp726
F-3.7812869548797607
aF2.6674365997314453
aF0.29072481393814087
abag1
(g2
g3
Ntp727
Rp728
(lp729
F-3.7614364624023438
aF2.6805002689361572
aF0.29072800278663635
abag1
(g2
g3
Ntp730
Rp731
(lp732
F-3.7404730319976807
aF2.699536085128784
aF0.2907496690750122
abag1
(g2
g3
Ntp733
Rp734
(lp735
F-3.7205026149749756
aF2.71476674079895
aF0.2907601594924927
abag1
(g2
g3
Ntp736
Rp737
(lp738
F-3.7002828121185303
aF2.7320613861083984
aF0.290777325630188
abag1
(g2
g3
Ntp739
Rp740
(lp741
F-3.6833362579345703
aF2.733766794204712
aF0.2907470762729645
abag1
(g2
g3
Ntp742
Rp743
(lp744
F-3.6666085720062256
aF2.7345688343048096
aF0.2907141447067261
abag1
(g2
g3
Ntp745
Rp746
(lp747
F-3.649901866912842
aF2.7354466915130615
aF0.29068154096603394
abag1
(g2
g3
Ntp748
Rp749
(lp750
F-3.6294074058532715
aF2.757052183151245
aF0.2907131612300873
abag1
(g2
g3
Ntp751
Rp752
(lp753
F-3.609822988510132
aF2.7748301029205322
aF0.29073336720466614
abag1
(g2
g3
Ntp754
Rp755
(lp756
F-3.5926527976989746
aF2.77990460395813
aF0.2907143831253052
abag1
(g2
g3
Ntp757
Rp758
(lp759
F-3.5757079124450684
aF2.784074306488037
aF0.2906927466392517
abag1
(g2
g3
Ntp760
Rp761
(lp762
F-3.5597963333129883
aF2.7824044227600098
aF0.29065293073654175
abag1
(g2
g3
Ntp763
Rp764
(lp765
F-3.5427627563476562
aF2.787714719772339
aF0.2906350791454315
abag1
(g2
g3
Ntp766
Rp767
(lp768
F-3.523609161376953
aF2.806934356689453
aF0.2906612455844879
abag1
(g2
g3
Ntp769
Rp770
(lp771
F-3.5047857761383057
aF2.825263500213623
aF0.2906849980354309
abag1
(g2
g3
Ntp772
Rp773
(lp774
F-3.488924980163574
aF2.824894428253174
aF0.2906498312950134
abag1
(g2
g3
Ntp775
Rp776
(lp777
F-3.4707894325256348
aF2.8404321670532227
aF0.29066532850265503
abag1
(g2
g3
Ntp778
Rp779
(lp780
F-3.4536292552948
aF2.8501181602478027
aF0.2906624674797058
abag1
(g2
g3
Ntp781
Rp782
(lp783
F-3.4357597827911377
aF2.865831136703491
aF0.2906791567802429
abag1
(g2
g3
Ntp784
Rp785
(lp786
F-3.4193332195281982
aF2.8717172145843506
aF0.2906646132469177
abag1
(g2
g3
Ntp787
Rp788
(lp789
F-3.4039700031280518
aF2.8697426319122314
aF0.2906248867511749
abag1
(g2
g3
Ntp790
Rp791
(lp792
F-3.3875091075897217
aF2.8767688274383545
aF0.2906142473220825
abag1
(g2
g3
Ntp793
Rp794
(lp795
F-3.3710014820098877
aF2.884864330291748
aF0.2906072437763214
abag1
(g2
g3
Ntp796
Rp797
(lp798
F-3.3528873920440674
aF2.9079418182373047
aF0.29064908623695374
abag1
(g2
g3
Ntp799
Rp800
(lp801
F-3.3371427059173584
aF2.9112274646759033
aF0.2906269133090973
abag1
(g2
g3
Ntp802
Rp803
(lp804
F-3.3205013275146484
aF2.9235353469848633
aF0.2906343340873718
abag1
(g2
g3
Ntp805
Rp806
(lp807
F-3.3046698570251465
aF2.9289567470550537
aF0.290619432926178
abag1
(g2
g3
Ntp808
Rp809
(lp810
F-3.289177417755127
aF2.9314634799957275
aF0.29059508442878723
abag1
(g2
g3
Ntp811
Rp812
(lp813
F-3.274075984954834
aF2.930056095123291
aF0.2905579209327698
abag1
(g2
g3
Ntp814
Rp815
(lp816
F-3.2568976879119873
aF2.952625036239624
aF0.2906000018119812
abag1
(g2
g3
Ntp817
Rp818
(lp819
F-3.240987777709961
aF2.9623210430145264
aF0.29059985280036926
abag1
(g2
g3
Ntp820
Rp821
(lp822
F-3.2243144512176514
aF2.9830574989318848
aF0.2906365990638733
abag1
(g2
g3
Ntp823
Rp824
(lp825
F-3.2094388008117676
aF2.9819324016571045
aF0.29060089588165283
abag1
(g2
g3
Ntp826
Rp827
(lp828
F-3.1945583820343018
aF2.980872392654419
aF0.2905654013156891
abag1
(g2
g3
Ntp829
Rp830
(lp831
F-3.1808993816375732
aF2.9609169960021973
aF0.2904666066169739
abag1
(g2
g3
Ntp832
Rp833
(lp834
F-3.1665894985198975
aF2.9490017890930176
aF0.29039445519447327
abag1
(g2
g3
Ntp835
Rp836
(lp837
F-3.1515657901763916
aF2.948129177093506
aF0.2903593182563782
abag1
(g2
g3
Ntp838
Rp839
(lp840
F-2.964597463607788
aF5.683757781982422
aF0.2995072603225708
abag1
(g2
g3
Ntp841
Rp842
(lp843
F-2.9614524841308594
aF5.699739933013916
aF0.29955631494522095
abag1
(g2
g3
Ntp844
Rp845
(lp846
F-2.958433151245117
aF5.69973611831665
aF0.2995498478412628
abag1
(g2
g3
Ntp847
Rp848
(lp849
F-2.9553823471069336
aF5.693745136260986
aF0.29952242970466614
abag1
(g2
g3
Ntp850
Rp851
(lp852
F-2.9523367881774902
aF5.69376802444458
aF0.2995159924030304
abag1
(g2
g3
Ntp853
Rp854
(lp855
F-2.949291467666626
aF5.693803787231445
aF0.29950961470603943
abag1
(g2
g3
Ntp856
Rp857
(lp858
F-2.9461729526519775
aF5.689853668212891
aF0.29948917031288147
abag1
(g2
g3
Ntp859
Rp860
(lp861
F-2.9430878162384033
aF5.6889166831970215
aF0.29947930574417114
abag1
(g2
g3
Ntp862
Rp863
(lp864
F-2.939967155456543
aF5.6869940757751465
aF0.29946592450141907
abag1
(g2
g3
Ntp865
Rp866
(lp867
F-2.929901361465454
aF5.66632080078125
aF0.29937228560447693
abag1
(g2
g3
Ntp868
Rp869
(lp870
F-2.926736354827881
aF5.666455268859863
aF0.2993659973144531
abag1
(g2
g3
Ntp871
Rp872
(lp873
F-2.9234254360198975
aF5.663606643676758
aF0.29934898018836975
abag1
(g2
g3
Ntp874
Rp875
(lp876
F-2.5477826595306396
aF2.511491060256958
aF0.28754571080207825
abag1
(g2
g3
Ntp877
Rp878
(lp879
F-2.530526638031006
aF2.510340690612793
aF0.2875048518180847
abag1
(g2
g3
Ntp880
Rp881
(lp882
F-2.5115416049957275
aF2.4943649768829346
aF0.2874085307121277
abag1
(g2
g3
Ntp883
Rp884
(lp885
F-2.49288272857666
aF2.4824533462524414
aF0.2873271107673645
abag1
(g2
g3
Ntp886
Rp887
(lp888
F-2.4731295108795166
aF2.462691068649292
aF0.2872159481048584
abag1
(g2
g3
Ntp889
Rp890
(lp891
F-2.4517974853515625
aF2.4321165084838867
aF0.2870636582374573
abag1
(g2
g3
Ntp892
Rp893
(lp894
F-2.434262275695801
aF2.432384967803955
aF0.28702715039253235
abag1
(g2
g3
Ntp895
Rp896
(lp897
F-2.4135985374450684
aF2.4099440574645996
aF0.2869046926498413
abag1
(g2
g3
Ntp898
Rp899
(lp900
F-2.3951094150543213
aF2.4044408798217773
aF0.28684598207473755
abag1
(g2
g3
Ntp901
Rp902
(lp903
F-2.376129150390625
aF2.396054744720459
aF0.28677618503570557
abag1
(g2
g3
Ntp904
Rp905
(lp906
F-2.3572134971618652
aF2.3887476921081543
aF0.286710262298584
abag1
(g2
g3
Ntp907
Rp908
(lp909
F-2.337610960006714
aF2.3775768280029297
aF0.28662940859794617
abag1
(g2
g3
Ntp910
Rp911
(lp912
F-2.3169562816619873
aF2.3605756759643555
aF0.2865259647369385
abag1
(g2
g3
Ntp913
Rp914
(lp915
F-2.296302318572998
aF2.34466552734375
aF0.286426305770874
abag1
(g2
g3
Ntp916
Rp917
(lp918
F-2.2740046977996826
aF2.319983959197998
aF0.28629255294799805
abag1
(g2
g3
Ntp919
Rp920
(lp921
F-2.2533512115478516
aF2.306260108947754
aF0.28620052337646484
abag1
(g2
g3
Ntp922
Rp923
(lp924
F-2.2334375381469727
aF2.297562599182129
aF0.28612765669822693
abag1
(g2
g3
Ntp925
Rp926
(lp927
F-2.213792085647583
aF2.290928602218628
aF0.2860625386238098
abag1
(g2
g3
Ntp928
Rp929
(lp930
F-2.195906162261963
aF2.294219493865967
aF0.28603580594062805
abag1
(g2
g3
Ntp931
Rp932
(lp933
F-2.1793463230133057
aF2.304464817047119
aF0.2860361933708191
abag1
(g2
g3
Ntp934
Rp935
(lp936
F-2.1615195274353027
aF2.307905912399292
aF0.28601011633872986
abag1
(g2
g3
Ntp937
Rp938
(lp939
F-2.1458635330200195
aF2.3222110271453857
aF0.28602659702301025
abag1
(g2
g3
Ntp940
Rp941
(lp942
F-2.13312029838562
aF2.3502917289733887
aF0.28609737753868103
abag1
(g2
g3
Ntp943
Rp944
(lp945
F-2.1169252395629883
aF2.360785961151123
aF0.2860994040966034
abag1
(g2
g3
Ntp946
Rp947
(lp948
F-2.0997626781463623
aF2.366454601287842
aF0.28608253598213196
abag1
(g2
g3
Ntp949
Rp950
(lp951
F-2.0864675045013428
aF2.3897831439971924
aF0.28613555431365967
abag1
(g2
g3
Ntp952
Rp953
(lp954
F-2.727620840072632
aF5.545821189880371
aF0.29851964116096497
abag1
(g2
g3
Ntp955
Rp956
(lp957
F-2.7250044345855713
aF5.550692558288574
aF0.29853105545043945
abag1
(g2
g3
Ntp958
Rp959
(lp960
F-2.721336841583252
aF5.551722049713135
aF0.2985268235206604
abag1
(g2
g3
Ntp961
Rp962
(lp963
F-2.7176737785339355
aF5.552767276763916
aF0.2985226511955261
abag1
(g2
g3
Ntp964
Rp965
(lp966
F-2.7137348651885986
aF5.552868366241455
aF0.29851457476615906
abag1
(g2
g3
Ntp967
Rp968
(lp969
F-2.7100768089294434
aF5.5539469718933105
aF0.29851052165031433
abag1
(g2
g3
Ntp970
Rp971
(lp972
F-2.706423759460449
aF5.555041313171387
aF0.29850655794143677
abag1
(g2
g3
Ntp973
Rp974
(lp975
F-2.705414295196533
aF5.564755439758301
aF0.29853829741477966
abag1
(g2
g3
Ntp976
Rp977
(lp978
F-2.701808214187622
aF5.56587028503418
aF0.29853448271751404
abag1
(g2
g3
Ntp979
Rp980
(lp981
F-2.698207139968872
aF5.567000389099121
aF0.2985307276248932
abag1
(g2
g3
Ntp982
Rp983
(lp984
F-2.6718995571136475
aF5.625790596008301
aF0.2986797094345093
abag1
(g2
g3
Ntp985
Rp986
(lp987
F-2.668560028076172
aF5.627050876617432
aF0.298676997423172
abag1
(g2
g3
Ntp988
Rp989
(lp990
F-2.6652262210845947
aF5.628325462341309
aF0.2986743152141571
abag1
(g2
g3
Ntp991
Rp992
(lp993
F-2.4785714149475098
aF5.3866801261901855
aF0.2974322736263275
abag1
(g2
g3
Ntp994
Rp995
(lp996
F-2.4741907119750977
aF5.3887858390808105
aF0.29743024706840515
abag1
(g2
g3
Ntp997
Rp998
(lp999
F-2.4711365699768066
aF5.393606185913086
aF0.2974405586719513
abag1
(g2
g3
Ntp1000
Rp1001
(lp1002
F-2.4921672344207764
aF5.559785842895508
aF0.2980654537677765
abag1
(g2
g3
Ntp1003
Rp1004
(lp1005
F-2.493966579437256
aF5.571399688720703
aF0.29810982942581177
abag1
(g2
g3
Ntp1006
Rp1007
(lp1008
F-2.4998340606689453
aF5.589924335479736
aF0.2981869876384735
abag1
(g2
g3
Ntp1009
Rp1010
(lp1011
F-2.496339797973633
aF5.591935634613037
aF0.2981865704059601
abag1
(g2
g3
Ntp1012
Rp1013
(lp1014
F-2.492854356765747
aF5.5939621925354
aF0.29818618297576904
abag1
(g2
g3
Ntp1015
Rp1016
(lp1017
F-2.4837868213653564
aF5.586530685424805
aF0.29814088344573975
abag1
(g2
g3
Ntp1018
Rp1019
(lp1020
F-2.4802780151367188
aF5.588612079620361
aF0.29814064502716064
abag1
(g2
g3
Ntp1021
Rp1022
(lp1023
F-2.474714994430542
aF5.587282180786133
aF0.29812413454055786
abag1
(g2
g3
Ntp1024
Rp1025
(lp1026
F-2.4712095260620117
aF5.58940315246582
aF0.2981240451335907
abag1
(g2
g3
Ntp1027
Rp1028
(lp1029
F-2.4677133560180664
aF5.59153938293457
aF0.2981240153312683
abag1
(g2
g3
Ntp1030
Rp1031
(lp1032
F-2.4737117290496826
aF5.608988285064697
aF0.29819774627685547
abag1
(g2
g3
Ntp1033
Rp1034
(lp1035
F-2.4703009128570557
aF5.611113548278809
aF0.298197865486145
abag1
(g2
g3
Ntp1036
Rp1037
(lp1038
F-2.3501720428466797
aF5.4648308753967285
aF0.29743075370788574
abag1
(g2
g3
Ntp1039
Rp1040
(lp1041
F-2.3395016193389893
aF5.45749568939209
aF0.2973823547363281
abag1
(g2
g3
Ntp1042
Rp1043
(lp1044
F-2.3259739875793457
aF5.446081161499023
aF0.2973136007785797
abag1
(g2
g3
Ntp1045
Rp1046
(lp1047
F-2.314574956893921
aF5.438081741333008
aF0.2972613573074341
abag1
(g2
g3
Ntp1048
Rp1049
(lp1050
F-2.2946412563323975
aF5.41777229309082
aF0.2971478998661041
abag1
(g2
g3
Ntp1051
Rp1052
(lp1053
F-2.290397882461548
aF5.420680522918701
aF0.2971489727497101
abag1
(g2
g3
Ntp1054
Rp1055
(lp1056
F-2.2861671447753906
aF5.423607349395752
aF0.2971501350402832
abag1
(g2
g3
Ntp1057
Rp1058
(lp1059
F-2.281949281692505
aF5.4265522956848145
aF0.2971514165401459
abag1
(g2
g3
Ntp1060
Rp1061
(lp1062
F-2.278322219848633
aF5.430332183837891
aF0.2971568703651428
abag1
(g2
g3
Ntp1063
Rp1064
(lp1065
F-2.2741339206695557
aF5.433311462402344
aF0.29715830087661743
abag1
(g2
g3
Ntp1066
Rp1067
(lp1068
F-2.2646937370300293
aF5.429009437561035
aF0.29712313413619995
abag1
(g2
g3
Ntp1069
Rp1070
(lp1071
F-2.1168835163116455
aF5.344313621520996
aF0.29651179909706116
abag1
(g2
g3
Ntp1072
Rp1073
(lp1074
F-2.112321138381958
aF5.347998142242432
aF0.29651492834091187
abag1
(g2
g3
Ntp1075
Rp1076
(lp1077
F-2.72959303855896
aF6.154552459716797
aF0.3006483316421509
abag1
(g2
g3
Ntp1078
Rp1079
(lp1080
F-2.728560209274292
aF6.155555725097656
aF0.30064961314201355
abag1
(g2
g3
Ntp1081
Rp1082
(lp1083
F-2.7303380966186523
aF6.159414291381836
aF0.3006668984889984
abag1
(g2
g3
Ntp1084
Rp1085
(lp1086
F-2.7293264865875244
aF6.160414218902588
aF0.30066820979118347
abag1
(g2
g3
Ntp1087
Rp1088
(lp1089
F-2.7283194065093994
aF6.161418914794922
aF0.3006695806980133
abag1
(g2
g3
Ntp1090
Rp1091
(lp1092
F-2.7273166179656982
aF6.16242790222168
aF0.30067095160484314
abag1
(g2
g3
Ntp1093
Rp1094
(lp1095
F-2.726318359375
aF6.163441181182861
aF0.30067235231399536
abag1
(g2
g3
Ntp1096
Rp1097
(lp1098
F-2.7251336574554443
aF6.177776336669922
aF0.30071985721588135
abag1
(g2
g3
Ntp1099
Rp1100
(lp1101
F-2.7242021560668945
aF6.178799152374268
aF0.3007214367389679
abag1
(g2
g3
Ntp1102
Rp1103
(lp1104
F-2.7232754230499268
aF6.179825782775879
aF0.30072304606437683
abag1
(g2
g3
Ntp1105
Rp1106
(lp1107
F-2.7201130390167236
aF6.178860664367676
aF0.300712913274765
abag1
(g2
g3
Ntp1108
Rp1109
(lp1110
F-2.686856508255005
aF6.181369304656982
aF0.30065062642097473
abag1
(g2
g3
Ntp1111
Rp1112
(lp1113
F-2.685941219329834
aF6.182559013366699
aF0.3006528317928314
abag1
(g2
g3
Ntp1114
Rp1115
(lp1116
F-2.6906068325042725
aF6.187984943389893
aF0.3006817400455475
abag1
(g2
g3
Ntp1117
Rp1118
(lp1119
F-2.689720392227173
aF6.189157962799072
aF0.3006839454174042
abag1
(g2
g3
Ntp1120
Rp1121
(lp1122
F-2.6888389587402344
aF6.190334796905518
aF0.30068615078926086
abag1
(g2
g3
Ntp1123
Rp1124
(lp1125
F-2.687962770462036
aF6.191515922546387
aF0.30068841576576233
abag1
(g2
g3
Ntp1126
Rp1127
(lp1128
F-2.6854777336120605
aF6.191519260406494
aF0.3006831109523773
abag1
(g2
g3
Ntp1129
Rp1130
(lp1131
F-2.682178258895874
aF6.190953731536865
aF0.30067408084869385
abag1
(g2
g3
Ntp1132
Rp1133
(lp1134
F-2.681304693222046
aF6.192163467407227
aF0.3006764352321625
abag1
(g2
g3
Ntp1135
Rp1136
(lp1137
F-2.4702961444854736
aF6.086929798126221
aF0.2998584508895874
abag1
(g2
g3
Ntp1138
Rp1139
(lp1140
F-2.4655673503875732
aF6.086963176727295
aF0.2998484671115875
abag1
(g2
g3
Ntp1141
Rp1142
(lp1143
F-2.464242458343506
aF6.0891194343566895
aF0.2998531758785248
abag1
(g2
g3
Ntp1144
Rp1145
(lp1146
F-2.455228328704834
aF6.086618900299072
aF0.29982519149780273
abag1
(g2
g3
Ntp1147
Rp1148
(lp1149
F-2.451328992843628
aF6.087277412414551
aF0.29981914162635803
abag1
(g2
g3
Ntp1150
Rp1151
(lp1152
F-2.218785285949707
aF5.99896764755249
aF0.29901421070098877
abag1
(g2
g3
Ntp1153
Rp1154
(lp1155
F-2.217078685760498
aF6.002201557159424
aF0.2990218698978424
abag1
(g2
g3
Ntp1156
Rp1157
(lp1158
F0.24435529112815857
aF4.918363571166992
aF0.289981484413147
abag1
(g2
g3
Ntp1159
Rp1160
(lp1161
F0.2507537305355072
aF4.9323554039001465
aF0.29001665115356445
abag1
(g2
g3
Ntp1162
Rp1163
(lp1164
F0.2570910155773163
aF4.946374416351318
aF0.29005202651023865
abag1
(g2
g3
Ntp1165
Rp1166
(lp1167
F0.2715921998023987
aF4.956767559051514
aF0.29005733132362366
abag1
(g2
g3
Ntp1168
Rp1169
(lp1170
F0.28331664204597473
aF4.968465805053711
aF0.29007309675216675
abag1
(g2
g3
Ntp1171
Rp1172
(lp1173
F0.29133090376853943
aF4.981831073760986
aF0.29010263085365295
abag1
(g2
g3
Ntp1174
Rp1175
(lp1176
F0.2974518835544586
aF4.996026992797852
aF0.2901391088962555
abag1
(g2
g3
Ntp1177
Rp1178
(lp1179
F0.33942386507987976
aF4.995042324066162
aF0.29004600644111633
abag1
(g2
g3
Ntp1180
Rp1181
(lp1182
F2.55305552482605
aF4.39098596572876
aF0.2832093834877014
abag1
(g2
g3
Ntp1183
Rp1184
(lp1185
F2.5240743160247803
aF4.428539276123047
aF0.28340235352516174
abag1
(g2
g3
Ntp1186
Rp1187
(lp1188
F2.526930809020996
aF4.4544806480407715
aF0.2834867835044861
abag1
(g2
g3
Ntp1189
Rp1190
(lp1191
F2.5409977436065674
aF4.4764628410339355
aF0.2835334539413452
abag1
(g2
g3
Ntp1192
Rp1193
(lp1194
F2.569164514541626
aF4.493659973144531
aF0.2835333049297333
abag1
(g2
g3
Ntp1195
Rp1196
(lp1197
F2.599179744720459
aF4.510425090789795
aF0.2835277020931244
abag1
(g2
g3
Ntp1198
Rp1199
(lp1200
F2.6073358058929443
aF4.534695148468018
aF0.2835949957370758
abag1
(g2
g3
Ntp1201
Rp1202
(lp1203
F2.555537462234497
aF4.578677654266357
aF0.28385913372039795
abag1
(g2
g3
Ntp1204
Rp1205
(lp1206
F2.563396453857422
aF4.602756500244141
aF0.2839263677597046
abag1
(g2
g3
Ntp1207
Rp1208
(lp1209
F2.5721027851104736
aF4.626565456390381
aF0.28399085998535156
abag1
(g2
g3
Ntp1210
Rp1211
(lp1212
F2.650346517562866
aF4.628526210784912
aF0.28383058309555054
abag1
(g2
g3
Ntp1213
Rp1214
(lp1215
F2.7076611518859863
aF4.6376423835754395
aF0.28373995423316956
abag1
(g2
g3
Ntp1216
Rp1217
(lp1218
F2.7688279151916504
aF4.646059036254883
aF0.28363868594169617
abag1
(g2
g3
Ntp1219
Rp1220
(lp1221
F2.8185348510742188
aF4.658424377441406
aF0.2835756540298462
abag1
(g2
g3
Ntp1222
Rp1223
(lp1224
F2.838510751724243
aF4.67996883392334
aF0.28360816836357117
abag1
(g2
g3
Ntp1225
Rp1226
(lp1227
F2.850726366043091
aF4.70388650894165
aF0.28366556763648987
abag1
(g2
g3
Ntp1228
Rp1229
(lp1230
F2.8580358028411865
aF4.729252338409424
aF0.28373846411705017
abag1
(g2
g3
Ntp1231
Rp1232
(lp1233
F2.865234851837158
aF4.754649639129639
aF0.2838117182254791
abag1
(g2
g3
Ntp1234
Rp1235
(lp1236
F2.8742501735687256
aF4.779545783996582
aF0.2838793694972992
abag1
(g2
g3
Ntp1237
Rp1238
(lp1239
F2.88798451423645
aF4.803178310394287
aF0.28393250703811646
abag1
(g2
g3
Ntp1240
Rp1241
(lp1242
F2.915149211883545
aF4.823288440704346
aF0.28394466638565063
abag1
(g2
g3
Ntp1243
Rp1244
(lp1245
F2.939347982406616
aF4.844367027282715
aF0.2839665412902832
abag1
(g2
g3
Ntp1246
Rp1247
(lp1248
F2.9499173164367676
aF4.869119644165039
aF0.28403034806251526
abag1
(g2
g3
Ntp1249
Rp1250
(lp1251
F2.9613518714904785
aF4.89369010925293
aF0.28409168124198914
abag1
(g2
g3
Ntp1252
Rp1253
(lp1254
F2.967832088470459
aF4.91953706741333
aF0.2841680347919464
abag1
(g2
g3
Ntp1255
Rp1256
(lp1257
F2.978085994720459
aF4.944464206695557
aF0.28423312306404114
abag1
(g2
g3
Ntp1258
Rp1259
(lp1260
F3.003795862197876
aF4.965732097625732
aF0.28425243496894836
abag1
(g2
g3
Ntp1261
Rp1262
(lp1263
F3.0196969509124756
aF4.9894795417785645
aF0.2843013405799866
abag1
(g2
g3
Ntp1264
Rp1265
(lp1266
F3.0257585048675537
aF5.015580177307129
aF0.2843794822692871
abag1
(g2
g3
Ntp1267
Rp1268
(lp1269
F3.0385351181030273
aF5.040167808532715
aF0.28443801403045654
abag1
(g2
g3
Ntp1270
Rp1271
(lp1272
F3.051211357116699
aF5.064840793609619
aF0.2844970226287842
abag1
(g2
g3
Ntp1273
Rp1274
(lp1275
F3.0569443702697754
aF5.09107780456543
aF0.2845763564109802
abag1
(g2
g3
Ntp1276
Rp1277
(lp1278
F3.0733234882354736
aF5.115062236785889
aF0.2846250832080841
abag1
(g2
g3
Ntp1279
Rp1280
(lp1281
F3.0886292457580566
aF5.139367580413818
aF0.2846772074699402
abag1
(g2
g3
Ntp1282
Rp1283
(lp1284
F3.094036340713501
aF5.165767192840576
aF0.2847577929496765
abag1
(g2
g3
Ntp1285
Rp1286
(lp1287
F3.117966413497925
aF5.188499927520752
aF0.28478601574897766
abag1
(g2
g3
Ntp1288
Rp1289
(lp1290
F3.1447579860687256
aF5.210848808288574
aF0.2848067879676819
abag1
(g2
g3
Ntp1291
Rp1292
(lp1293
F3.149852752685547
aF5.237492561340332
aF0.28488889336586
abag1
(g2
g3
Ntp1294
Rp1295
(lp1296
F3.1587648391723633
aF5.26343297958374
aF0.28496038913726807
abag1
(g2
g3
Ntp1297
Rp1298
(lp1299
F3.180361032485962
aF5.2871270179748535
aF0.2849969267845154
abag1
(g2
g3
Ntp1300
Rp1301
(lp1302
F3.1851227283477783
aF5.313925266265869
aF0.28508028388023376
abag1
(g2
g3
Ntp1303
Rp1304
(lp1305
F2.3180088996887207
aF5.725125312805176
aF0.2883675992488861
abag1
(g2
g3
Ntp1306
Rp1307
(lp1308
F2.2831473350524902
aF5.7527546882629395
aF0.28853848576545715
abag1
(g2
g3
Ntp1309
Rp1310
(lp1311
F2.288864850997925
aF5.775284290313721
aF0.2886049151420593
abag1
(g2
g3
Ntp1312
Rp1313
(lp1314
F2.2885236740112305
aF5.798525333404541
aF0.28868675231933594
abag1
(g2
g3
Ntp1315
Rp1316
(lp1317
F2.2274367809295654
aF5.828339099884033
aF0.2889212667942047
abag1
(g2
g3
Ntp1318
Rp1319
(lp1320
F2.2149267196655273
aF5.852529525756836
aF0.2890324294567108
abag1
(g2
g3
Ntp1321
Rp1322
(lp1323
F2.174443006515503
aF5.879380226135254
aF0.2892126142978668
abag1
(g2
g3
Ntp1324
Rp1325
(lp1326
F2.1417884826660156
aF5.9051079750061035
aF0.28937214612960815
abag1
(g2
g3
Ntp1327
Rp1328
(lp1329
F2.060209035873413
aF5.934981822967529
aF0.28965067863464355
abag1
(g2
g3
Ntp1330
Rp1331
(lp1332
F2.0611581802368164
aF5.956972599029541
aF0.2897253930568695
abag1
(g2
g3
Ntp1333
Rp1334
(lp1335
F2.0331082344055176
aF5.981339454650879
aF0.28987035155296326
abag1
(g2
g3
Ntp1336
Rp1337
(lp1338
F1.987993597984314
aF6.006771564483643
aF0.2900554835796356
abag1
(g2
g3
Ntp1339
Rp1340
(lp1341
F1.9666882753372192
aF6.030045032501221
aF0.2901822030544281
abag1
(g2
g3
Ntp1342
Rp1343
(lp1344
F1.9123525619506836
aF6.055397987365723
aF0.29038676619529724
abag1
(g2
g3
Ntp1345
Rp1346
(lp1347
F1.893815517425537
aF6.07794713973999
aF0.290505051612854
abag1
(g2
g3
Ntp1348
Rp1349
(lp1350
F1.855211615562439
aF6.101531505584717
aF0.29066982865333557
abag1
(g2
g3
Ntp1351
Rp1352
(lp1353
F1.8464481830596924
aF6.123097896575928
aF0.290763795375824
abag1
(g2
g3
Ntp1354
Rp1355
(lp1356
F1.810623288154602
aF6.145972728729248
aF0.2909201681613922
abag1
(g2
g3
Ntp1357
Rp1358
(lp1359
F1.794669270515442
aF6.167586803436279
aF0.2910296618938446
abag1
(g2
g3
Ntp1360
Rp1361
(lp1362
F1.738654613494873
aF6.190767288208008
aF0.2912302315235138
abag1
(g2
g3
Ntp1363
Rp1364
(lp1365
F1.0989315509796143
aF6.572482109069824
aF0.2939288914203644
abag1
(g2
g3
Ntp1366
Rp1367
(lp1368
F1.0981045961380005
aF6.590186595916748
aF0.29399245977401733
abag1
(g2
g3
Ntp1369
Rp1370
(lp1371
F1.0832200050354004
aF6.607142448425293
aF0.2940834164619446
abag1
(g2
g3
Ntp1372
Rp1373
(lp1374
F1.096218466758728
aF6.625583648681641
aF0.29412001371383667
abag1
(g2
g3
Ntp1375
Rp1376
(lp1377
F0.9660525321960449
aF6.8771748542785645
aF0.29527610540390015
abag1
(g2
g3
Ntp1378
Rp1379
(lp1380
F0.977783739566803
aF6.89607572555542
aF0.29531702399253845
abag1
(g2
g3
Ntp1381
Rp1382
(lp1383
F0.9874415993690491
aF6.914824962615967
aF0.29536181688308716
abag1
(g2
g3
Ntp1384
Rp1385
(lp1386
F0.9851215481758118
aF6.932039737701416
aF0.2954268455505371
abag1
(g2
g3
Ntp1387
Rp1388
(lp1389
F0.9827267527580261
aF6.949244022369385
aF0.295492023229599
abag1
(g2
g3
Ntp1390
Rp1391
(lp1392
F1.124484658241272
aF7.097104072570801
aF0.29570522904396057
abag1
(g2
g3
Ntp1393
Rp1394
(lp1395
F1.121368169784546
aF7.114914894104004
aF0.29577407240867615
abag1
(g2
g3
Ntp1396
Rp1397
(lp1398
F1.1181739568710327
aF7.132712364196777
aF0.2958430051803589
abag1
(g2
g3
Ntp1399
Rp1400
(lp1401
F1.1306315660476685
aF7.1534247398376465
aF0.29588866233825684
abag1
(g2
g3
Ntp1402
Rp1403
(lp1404
F1.1400388479232788
aF7.1736979484558105
aF0.2959393262863159
abag1
(g2
g3
Ntp1405
Rp1406
(lp1407
F0.37939733266830444
aF7.273804187774658
aF0.29791349172592163
abag1
(g2
g3
Ntp1408
Rp1409
(lp1410
F0.3755168616771698
aF7.2883620262146
aF0.29797258973121643
abag1
(g2
g3
Ntp1411
Rp1412
(lp1413
F0.37157297134399414
aF7.302903175354004
aF0.298031747341156
abag1
(g2
g3
Ntp1414
Rp1415
(lp1416
F0.49753305315971375
aF7.551658630371094
aF0.29863083362579346
abag1
(g2
g3
Ntp1417
Rp1418
(lp1419
F0.5037989020347595
aF7.570596694946289
aF0.2986835539340973
abag1
(g2
g3
Ntp1420
Rp1421
(lp1422
F0.1346716284751892
aF7.629143238067627
aF0.2996763586997986
abag1
(g2
g3
Ntp1423
Rp1424
(lp1425
F-0.13564710319042206
aF7.681415557861328
aF0.30043622851371765
abag1
(g2
g3
Ntp1426
Rp1427
(lp1428
F-0.14130115509033203
aF7.693722724914551
aF0.30049124360084534
abag1
(g2
g3
Ntp1429
Rp1430
(lp1431
F-0.11620715260505676
aF7.720400810241699
aF0.3005307614803314
abag1
(g2
g3
Ntp1432
Rp1433
(lp1434
F-0.11751119047403336
aF7.734929084777832
aF0.30058422684669495
abag1
(g2
g3
Ntp1435
Rp1436
(lp1437
F-0.12159448862075806
aF7.748177528381348
aF0.30063918232917786
abag1
(g2
g3
Ntp1438
Rp1439
(lp1440
F-1.1873500347137451
aF7.47955846786499
aF0.3019782602787018
abag1
(g2
g3
Ntp1441
Rp1442
(lp1443
F-1.1921133995056152
aF7.487278461456299
aF0.30201536417007446
abag1
(g2
g3
Ntp1444
Rp1445
(lp1446
F-1.1969103813171387
aF7.4949774742126465
aF0.30205249786376953
abag1
(g2
g3
Ntp1447
Rp1448
(lp1449
F-2.2798349857330322
aF7.0487775802612305
aF0.3028084635734558
abag1
(g2
g3
Ntp1450
Rp1451
(lp1452
F-2.289149522781372
aF7.0454487800598145
aF0.3028167188167572
abag1
(g2
g3
Ntp1453
Rp1454
(lp1455
F-2.2920081615448
aF7.048365592956543
aF0.30283302068710327
abag1
(g2
g3
Ntp1456
Rp1457
(lp1458
F-2.2984275817871094
aF7.047746658325195
aF0.3028445839881897
abag1
(g2
g3
Ntp1459
Rp1460
(lp1461
F-2.3034157752990723
aF7.048499584197998
aF0.3028578460216522
abag1
(g2
g3
Ntp1462
Rp1463
(lp1464
F-2.3083977699279785
aF7.049221515655518
aF0.3028710186481476
abag1
(g2
g3
Ntp1465
Rp1466
(lp1467
F-2.31477427482605
aF7.048484802246094
aF0.3028820753097534
abag1
(g2
g3
Ntp1468
Rp1469
(lp1470
F-2.3204345703125
aF7.048422336578369
aF0.3028939366340637
abag1
(g2
g3
Ntp1471
Rp1472
(lp1473
F-2.324000120162964
aF7.050482273101807
aF0.3029087483882904
abag1
(g2
g3
Ntp1474
Rp1475
(lp1476
F-2.3282623291015625
aF7.051800727844238
aF0.30292245745658875
abag1
(g2
g3
Ntp1477
Rp1478
(lp1479
F-2.331148386001587
aF7.05454683303833
aF0.30293819308280945
abag1
(g2
g3
Ntp1480
Rp1481
(lp1482
F-2.3340463638305664
aF7.05728006362915
aF0.30295392870903015
abag1
(g2
g3
Ntp1483
Rp1484
(lp1485
F-2.336956262588501
aF7.060000896453857
aF0.30296963453292847
abag1
(g2
g3
Ntp1486
Rp1487
(lp1488
F-2.3412344455718994
aF7.061238765716553
aF0.3029831051826477
abag1
(g2
g3
Ntp1489
Rp1490
(lp1491
F-2.3455114364624023
aF7.06245231628418
aF0.3029964566230774
abag1
(g2
g3
Ntp1492
Rp1493
(lp1494
F-2.3484437465667725
aF7.065123081207275
aF0.30301204323768616
abag1
(g2
g3
Ntp1495
Rp1496
(lp1497
F-2.3513877391815186
aF7.0677809715271
aF0.3030276298522949
abag1
(g2
g3
Ntp1498
Rp1499
(lp1500
F-2.355008602142334
aF7.069679260253906
aF0.3030419647693634
abag1
(g2
g3
Ntp1501
Rp1502
(lp1503
F-2.3606202602386475
aF7.069310188293457
aF0.3030526638031006
abag1
(g2
g3
Ntp1504
Rp1505
(lp1506
F-2.3635823726654053
aF7.0719146728515625
aF0.3030681014060974
abag1
(g2
g3
Ntp1507
Rp1508
(lp1509
F-2.36655592918396
aF7.0745062828063965
aF0.30308347940444946
abag1
(g2
g3
Ntp1510
Rp1511
(lp1512
F-2.3695406913757324
aF7.077085018157959
aF0.3030988574028015
abag1
(g2
g3
Ntp1513
Rp1514
(lp1515
F-2.3634538650512695
aF7.090303897857666
aF0.30313199758529663
abag1
(g2
g3
Ntp1516
Rp1517
(lp1518
F-2.3665075302124023
aF7.092895984649658
aF0.303147554397583
abag1
(g2
g3
Ntp1519
Rp1520
(lp1521
F-2.3689305782318115
aF7.096241474151611
aF0.30316442251205444
abag1
(g2
g3
Ntp1522
Rp1523
(lp1524
F-2.3720099925994873
aF7.098809719085693
aF0.30317994952201843
abag1
(g2
g3
Ntp1525
Rp1526
(lp1527
F-2.37510085105896
aF7.1013641357421875
aF0.3031954765319824
abag1
(g2
g3
Ntp1528
Rp1529
(lp1530
F-2.3782026767730713
aF7.103905200958252
aF0.303210973739624
abag1
(g2
g3
Ntp1531
Rp1532
(lp1533
F-2.3813157081604004
aF7.106432914733887
aF0.30322644114494324
abag1
(g2
g3
Ntp1534
Rp1535
(lp1536
F-2.3813135623931885
aF7.11284875869751
aF0.3032488226890564
abag1
(g2
g3
Ntp1537
Rp1538
(lp1539
F-2.384465456008911
aF7.115362644195557
aF0.303264319896698
abag1
(g2
g3
Ntp1540
Rp1541
(lp1542
F-2.3876283168792725
aF7.117862701416016
aF0.3032798171043396
abag1
(g2
g3
Ntp1543
Rp1544
(lp1545
F-2.3908021450042725
aF7.120349407196045
aF0.3032952845096588
abag1
(g2
g3
Ntp1546
Rp1547
(lp1548
F-2.3848137855529785
aF7.134689807891846
aF0.30333253741264343
abag1
(g2
g3
Ntp1549
Rp1550
(lp1551
F-2.388061046600342
aF7.13718843460083
aF0.303348183631897
abag1
(g2
g3
Ntp1552
Rp1553
(lp1554
F-2.3913190364837646
aF7.13967227935791
aF0.3033638000488281
abag1
(g2
g3
Ntp1555
Rp1556
(lp1557
F-2.393385648727417
aF7.143740653991699
aF0.30338242650032043
abag1
(g2
g3
Ntp1558
Rp1559
(lp1560
F-2.396672487258911
aF7.1462016105651855
aF0.3033980429172516
abag1
(g2
g3
Ntp1561
Rp1562
(lp1563
F-2.5250444412231445
aF7.192710876464844
aF0.30383455753326416
abag1
(g2
g3
Ntp1564
Rp1565
(lp1566
F-2.5398848056793213
aF7.173445701599121
aF0.303799033164978
abag1
(g2
g3
Ntp1567
Rp1568
(lp1569
F-2.543299674987793
aF7.175267219543457
aF0.3038126826286316
abag1
(g2
g3
Ntp1570
Rp1571
(lp1572
F-2.546722412109375
aF7.177073955535889
aF0.30382630228996277
abag1
(g2
g3
Ntp1573
Rp1574
(lp1575
F-2.5492310523986816
aF7.18064022064209
aF0.3038440942764282
abag1
(g2
g3
Ntp1576
Rp1577
(lp1578
F-2.5526771545410156
aF7.18242073059082
aF0.303857684135437
abag1
(g2
g3
Ntp1579
Rp1580
(lp1581
F-2.55613112449646
aF7.184185981750488
aF0.303871214389801
abag1
(g2
g3
Ntp1582
Rp1583
(lp1584
F-2.564535140991211
aF7.176109790802002
aF0.30386099219322205
abag1
(g2
g3
Ntp1585
Rp1586
(lp1587
F-2.5679614543914795
aF7.177823543548584
aF0.30387428402900696
abag1
(g2
g3
Ntp1588
Rp1589
(lp1590
F-2.5713951587677
aF7.179522514343262
aF0.3038875460624695
abag1
(g2
g3
Ntp1591
Rp1592
(lp1593
F-2.5752737522125244
aF7.180306911468506
aF0.30389857292175293
abag1
(g2
g3
Ntp1594
Rp1595
(lp1596
F-2.5787181854248047
aF7.181973934173584
aF0.3039117455482483
abag1
(g2
g3
Ntp1597
Rp1598
(lp1599
F-2.5873265266418457
aF7.17279052734375
aF0.30389806628227234
abag1
(g2
g3
Ntp1600
Rp1601
(lp1602
F-2.59073805809021
aF7.174404621124268
aF0.3039110004901886
abag1
(g2
g3
Ntp1603
Rp1604
(lp1605
F-2.5941567420959473
aF7.176004409790039
aF0.3039238750934601
abag1
(g2
g3
Ntp1606
Rp1607
(lp1608
F-2.5908963680267334
aF7.192124843597412
aF0.3039731979370117
abag1
(g2
g3
Ntp1609
Rp1610
(lp1611
F-2.5943920612335205
aF7.193723678588867
aF0.30398622155189514
abag1
(g2
g3
Ntp1612
Rp1613
(lp1614
F-2.5978949069976807
aF7.195306777954102
aF0.30399924516677856
abag1
(g2
g3
Ntp1615
Rp1616
(lp1617
F-2.6014046669006348
aF7.196875095367432
aF0.3040122091770172
abag1
(g2
g3
Ntp1618
Rp1619
(lp1620
F-2.6117541790008545
aF7.182861804962158
aF0.3039854168891907
abag1
(g2
g3
Ntp1621
Rp1622
(lp1623
F-2.6152095794677734
aF7.1843695640563965
aF0.30399805307388306
abag1
(g2
g3
Ntp1624
Rp1625
(lp1626
F-2.610792398452759
aF7.204244613647461
aF0.3040579855442047
abag1
(g2
g3
Ntp1627
Rp1628
(lp1629
F-2.6104416847229004
aF7.214964866638184
aF0.3040946424007416
abag1
(g2
g3
Ntp1630
Rp1631
(lp1632
F-2.614037036895752
aF7.216477870941162
aF0.3041076064109802
abag1
(g2
g3
Ntp1633
Rp1634
(lp1635
F-2.6130564212799072
aF7.229065895080566
aF0.30414944887161255
abag1
(g2
g3
Ntp1636
Rp1637
(lp1638
F-2.616713285446167
aF7.230567455291748
aF0.30416250228881836
abag1
(g2
g3
Ntp1639
Rp1640
(lp1641
F-2.6121532917022705
aF7.252458095550537
aF0.30422914028167725
abag1
(g2
g3
Ntp1642
Rp1643
(lp1644
F-2.6144330501556396
aF7.257680416107178
aF0.3042522370815277
abag1
(g2
g3
Ntp1645
Rp1646
(lp1647
F-2.6182148456573486
aF7.2591753005981445
aF0.3042655289173126
abag1
(g2
g3
Ntp1648
Rp1649
(lp1650
F-2.619110107421875
aF7.268113136291504
aF0.30429863929748535
abag1
(g2
g3
Ntp1651
Rp1652
(lp1653
F-2.1046981811523438
aF9.109606742858887
aF0.30962663888931274
abag1
(g2
g3
Ntp1654
Rp1655
(lp1656
F-2.1224794387817383
aF9.09420394897461
aF0.30961084365844727
abag1
(g2
g3
Ntp1657
Rp1658
(lp1659
F-1.3357484340667725
aF12.579317092895508
aF0.3200933635234833
abag1
(g2
g3
Ntp1660
Rp1661
(lp1662
F-1.371246337890625
aF12.55341625213623
aF0.3200787901878357
abag1
(g2
g3
Ntp1663
Rp1664
(lp1665
F-2.508342981338501
aF9.25344467163086
aF0.3109908401966095
abag1
(g2
g3
Ntp1666
Rp1667
(lp1668
F-2.5224978923797607
aF9.244510650634766
aF0.3109898865222931
abag1
(g2
g3
Ntp1669
Rp1670
(lp1671
F-2.5333333015441895
aF9.257268905639648
aF0.31105756759643555
abag1
(g2
g3
Ntp1672
Rp1673
(lp1674
F-2.5458405017852783
aF9.259099006652832
aF0.3110906481742859
abag1
(g2
g3
Ntp1675
Rp1676
(lp1677
F-2.365845203399658
aF12.909759521484375
aF0.32344695925712585
abag1
(g2
g3
Ntp1678
Rp1679
(lp1680
F-2.378328323364258
aF13.096593856811523
aF0.3241256773471832
abag1
(g2
g3
Ntp1681
Rp1682
(lp1683
F-2.4075891971588135
aF13.099063873291016
aF0.32419678568840027
abag1
(g2
g3
Ntp1684
Rp1685
(lp1686
F-2.440119504928589
aF13.05953311920166
aF0.32412832975387573
abag1
(g2
g3
Ntp1687
Rp1688
(lp1689
F-2.470975875854492
aF13.037797927856445
aF0.32411837577819824
abag1
(g2
g3
Ntp1690
Rp1691
(lp1692
F-2.504112482070923
aF12.98000717163086
aF0.3239874541759491
abag1
(g2
g3
Ntp1693
Rp1694
(lp1695
F-2.5356385707855225
aF12.939019203186035
aF0.32391175627708435
abag1
(g2
g3
Ntp1696
Rp1697
(lp1698
F-2.5655345916748047
aF12.918844223022461
aF0.32390519976615906
abag1
(g2
g3
Ntp1699
Rp1700
(lp1701
F-2.59401798248291
aF12.920498847961426
aF0.32397183775901794
abag1
(g2
g3
Ntp1702
Rp1703
(lp1704
F-2.6225087642669678
aF12.922028541564941
aF0.324038028717041
abag1
(g2
g3
Ntp1705
Rp1706
(lp1707
F-2.6505346298217773
aF12.933423042297363
aF0.3241376578807831
abag1
(g2
g3
Ntp1708
Rp1709
(lp1710
F-2.678140640258789
aF12.956686973571777
aF0.3242778182029724
abag1
(g2
g3
Ntp1711
Rp1712
(lp1713
F-2.705982208251953
aF12.97883415222168
aF0.32441458106040955
abag1
(g2
g3
Ntp1714
Rp1715
(lp1716
F-2.73384165763855
aF13.005860328674316
aF0.32456842064857483
abag1
(g2
g3
Ntp1717
Rp1718
(lp1719
F-2.7621989250183105
aF13.023772239685059
aF0.324691504240036
abag1
(g2
g3
Ntp1720
Rp1721
(lp1722
F-2.7907588481903076
aF13.039563179016113
aF0.32480761408805847
abag1
(g2
g3
Ntp1723
Rp1724
(lp1725
F-2.8193275928497314
aF13.06122875213623
aF0.32494425773620605
abag1
(g2
g3
Ntp1726
Rp1727
(lp1728
F-2.8471367359161377
aF13.139763832092285
aF0.32527774572372437
abag1
(g2
g3
Ntp1729
Rp1730
(lp1731
F-2.8765816688537598
aF13.14018726348877
aF0.3253421187400818
abag1
(g2
g3
Ntp1732
Rp1733
(lp1734
F-3.2970969676971436
aF11.481483459472656
aF0.3204514980316162
abag1
(g2
g3
Ntp1735
Rp1736
(lp1737
F-3.3193018436431885
aF11.479959487915039
aF0.32049360871315
aba.