(lp0
ccopy_reg
_reconstructor
p1
(cgeometry_msgs.msg._Point32
Point32
p2
c__builtin__
object
p3
Ntp4
Rp5
(lp6
F-6.572330474853516
aF5.9877424240112305
aF0.308026522397995
abag1
(g2
g3
Ntp7
Rp8
(lp9
F-6.562751770019531
aF5.9689040184021
aF0.3080303370952606
abag1
(g2
g3
Ntp10
Rp11
(lp12
F-6.560088634490967
aF5.950263023376465
aF0.3080423176288605
abag1
(g2
g3
Ntp13
Rp14
(lp15
F-6.531346321105957
aF5.9313459396362305
aF0.3080231249332428
abag1
(g2
g3
Ntp16
Rp17
(lp18
F-6.513520240783691
aF5.912760257720947
aF0.3080167770385742
abag1
(g2
g3
Ntp19
Rp20
(lp21
F-6.489612579345703
aF5.894313812255859
aF0.3080030083656311
abag1
(g2
g3
Ntp22
Rp23
(lp24
F-6.476624965667725
aF5.8760600090026855
aF0.3080022633075714
abag1
(g2
g3
Ntp25
Rp26
(lp27
F-6.440557956695557
aF5.858055114746094
aF0.3079734742641449
abag1
(g2
g3
Ntp28
Rp29
(lp30
F-6.437412738800049
aF5.84002685546875
aF0.3079843819141388
abag1
(g2
g3
Ntp31
Rp32
(lp33
F-6.4001922607421875
aF5.822522163391113
aF0.307953804731369
abag1
(g2
g3
Ntp34
Rp35
(lp36
F-6.3998918533325195
aF5.8046393394470215
aF0.30796802043914795
abag1
(g2
g3
Ntp37
Rp38
(lp39
F-6.380518436431885
aF5.787201404571533
aF0.3079589009284973
abag1
(g2
g3
Ntp40
Rp41
(lp42
F-6.371068000793457
aF5.769654273986816
aF0.3079618215560913
abag1
(g2
g3
Ntp43
Rp44
(lp45
F-6.3675384521484375
aF5.75199556350708
aF0.3079719543457031
abag1
(g2
g3
Ntp46
Rp47
(lp48
F-6.336950778961182
aF5.735348224639893
aF0.30794867873191833
abag1
(g2
g3
Ntp49
Rp50
(lp51
F-6.33127498626709
aF5.7179460525512695
aF0.3079560399055481
abag1
(g2
g3
Ntp52
Rp53
(lp54
F-6.2935566902160645
aF5.702035427093506
aF0.3079235553741455
abag1
(g2
g3
Ntp55
Rp56
(lp57
F-6.2807464599609375
aF5.685213088989258
aF0.307921826839447
abag1
(g2
g3
Ntp58
Rp59
(lp60
F-6.258878707885742
aF5.6689839363098145
aF0.30790871381759644
abag1
(g2
g3
Ntp61
Rp62
(lp63
F-6.249922752380371
aF5.65218448638916
aF0.30791163444519043
abag1
(g2
g3
Ntp64
Rp65
(lp66
F-6.222931861877441
aF5.6365861892700195
aF0.3078918159008026
abag1
(g2
g3
Ntp67
Rp68
(lp69
F-6.2218217849731445
aF5.619478225708008
aF0.3079044222831726
abag1
(g2
g3
Ntp70
Rp71
(lp72
F-6.1957011222839355
aF5.6041579246521
aF0.30788543820381165
abag1
(g2
g3
Ntp73
Rp74
(lp75
F-6.181487083435059
aF5.5881524085998535
aF0.3078813850879669
abag1
(g2
g3
Ntp76
Rp77
(lp78
F-6.15424919128418
aF5.573305606842041
aF0.30786067247390747
abag1
(g2
g3
Ntp79
Rp80
(lp81
F-6.151867866516113
aF5.556582927703857
aF0.30787143111228943
abag1
(g2
g3
Ntp82
Rp83
(lp84
F-6.123515605926514
aF5.542180061340332
aF0.3078490197658539
abag1
(g2
g3
Ntp85
Rp86
(lp87
F-6.120998859405518
aF5.525600433349609
aF0.30785948038101196
abag1
(g2
g3
Ntp88
Rp89
(lp90
F-6.09950065612793
aF5.510886192321777
aF0.3078455924987793
abag1
(g2
g3
Ntp91
Rp92
(lp93
F-6.0719780921936035
aF5.496962547302246
aF0.3078237771987915
abag1
(g2
g3
Ntp94
Rp95
(lp96
F-6.070261001586914
aF5.4805145263671875
aF0.30783510208129883
abag1
(g2
g3
Ntp97
Rp98
(lp99
F-6.054556846618652
aF5.465620040893555
aF0.3078283369541168
abag1
(g2
g3
Ntp100
Rp101
(lp102
F-6.033827781677246
aF5.451428413391113
aF0.30781492590904236
abag1
(g2
g3
Ntp103
Rp104
(lp105
F-6.026947498321533
aF5.43574333190918
aF0.3078194260597229
abag1
(g2
g3
Ntp106
Rp107
(lp108
F-6.004123210906982
aF5.422083854675293
aF0.30780306458473206
abag1
(g2
g3
Ntp109
Rp110
(lp111
F-5.9891862869262695
aF5.407593250274658
aF0.3077968955039978
abag1
(g2
g3
Ntp112
Rp113
(lp114
F-5.982123374938965
aF5.392168045043945
aF0.30780094861984253
abag1
(g2
g3
Ntp115
Rp116
(lp117
F-5.9621171951293945
aF5.378567695617676
aF0.3077879250049591
abag1
(g2
g3
Ntp118
Rp119
(lp120
F-5.9499831199646
aF5.364007472991943
aF0.30778518319129944
abag1
(g2
g3
Ntp121
Rp122
(lp123
F-5.923940181732178
aF5.351573467254639
aF0.307763934135437
abag1
(g2
g3
Ntp124
Rp125
(lp126
F-5.914668083190918
aF5.336818695068359
aF0.30776479840278625
abag1
(g2
g3
Ntp127
Rp128
(lp129
F-5.905336380004883
aF5.322134494781494
aF0.30776551365852356
abag1
(g2
g3
Ntp130
Rp131
(lp132
F-5.883108615875244
aF5.309574127197266
aF0.3077489733695984
abag1
(g2
g3
Ntp133
Rp134
(lp135
F-5.8726806640625
aF5.295250415802002
aF0.30774810910224915
abag1
(g2
g3
Ntp136
Rp137
(lp138
F-5.861210346221924
aF5.2811737060546875
aF0.3077457547187805
abag1
(g2
g3
Ntp139
Rp140
(lp141
F-5.835891246795654
aF5.2695770263671875
aF0.3077247142791748
abag1
(g2
g3
Ntp142
Rp143
(lp144
F-5.825307369232178
aF5.255563259124756
aF0.30772337317466736
abag1
(g2
g3
Ntp145
Rp146
(lp147
F-5.821555137634277
aF5.240373611450195
aF0.3077312409877777
abag1
(g2
g3
Ntp148
Rp149
(lp150
F-5.809873104095459
aF5.226675033569336
aF0.3077283203601837
abag1
(g2
g3
Ntp151
Rp152
(lp153
F-5.800103664398193
aF5.2126898765563965
aF0.30772796273231506
abag1
(g2
g3
Ntp154
Rp155
(lp156
F-5.780465602874756
aF5.200700283050537
aF0.3077140748500824
abag1
(g2
g3
Ntp157
Rp158
(lp159
F-5.760789394378662
aF5.188869476318359
aF0.3077000081539154
abag1
(g2
g3
Ntp160
Rp161
(lp162
F-5.747933864593506
aF5.175791263580322
aF0.3076951801776886
abag1
(g2
g3
Ntp163
Rp164
(lp165
F-5.72524356842041
aF5.164863109588623
aF0.307676762342453
abag1
(g2
g3
Ntp166
Rp167
(lp168
F-5.715235233306885
aF5.151397705078125
aF0.30767568945884705
abag1
(g2
g3
Ntp169
Rp170
(lp171
F-5.689544200897217
aF5.141424179077148
aF0.30765286087989807
abag1
(g2
g3
Ntp172
Rp173
(lp174
F-5.686278820037842
aF5.126648426055908
aF0.3076609671115875
abag1
(g2
g3
Ntp175
Rp176
(lp177
F-5.674173831939697
aF5.113887310028076
aF0.30765679478645325
abag1
(g2
g3
Ntp178
Rp179
(lp180
F-5.670788764953613
aF5.099178791046143
aF0.307664692401886
abag1
(g2
g3
Ntp181
Rp182
(lp183
F-5.658581733703613
aF5.086562156677246
aF0.3076602816581726
abag1
(g2
g3
Ntp184
Rp185
(lp186
F-5.648273468017578
aF5.073566436767578
aF0.30765846371650696
abag1
(g2
g3
Ntp187
Rp188
(lp189
F-5.634031295776367
aF5.061602592468262
aF0.3076510429382324
abag1
(g2
g3
Ntp190
Rp191
(lp192
F-5.608109951019287
aF5.05266809463501
aF0.3076271116733551
abag1
(g2
g3
Ntp193
Rp194
(lp195
F-5.588955879211426
aF5.042211055755615
aF0.3076125383377075
abag1
(g2
g3
Ntp196
Rp197
(lp198
F-5.581387519836426
aF5.02888298034668
aF0.3076142966747284
abag1
(g2
g3
Ntp199
Rp200
(lp201
F-5.5669989585876465
aF5.017396926879883
aF0.3076063394546509
abag1
(g2
g3
Ntp202
Rp203
(lp204
F-5.561262607574463
aF5.003677845001221
aF0.3076106011867523
abag1
(g2
g3
Ntp205
Rp206
(lp207
F-5.552575588226318
aF4.990786075592041
aF0.3076106309890747
abag1
(g2
g3
Ntp208
Rp209
(lp210
F-5.524573802947998
aF4.983327388763428
aF0.3075829744338989
abag1
(g2
g3
Ntp211
Rp212
(lp213
F-5.520619869232178
aF4.969273090362549
aF0.30758967995643616
abag1
(g2
g3
Ntp214
Rp215
(lp216
F-5.516604900360107
aF4.955236434936523
aF0.30759626626968384
abag1
(g2
g3
Ntp217
Rp218
(lp219
F-5.512528896331787
aF4.941217422485352
aF0.30760279297828674
abag1
(g2
g3
Ntp220
Rp221
(lp222
F-5.498807907104492
aF4.930070877075195
aF0.3075953423976898
abag1
(g2
g3
Ntp223
Rp224
(lp225
F-5.4726080894470215
aF4.922791481018066
aF0.3075697124004364
abag1
(g2
g3
Ntp226
Rp227
(lp228
F-5.457876205444336
aF4.912197113037109
aF0.30756062269210815
abag1
(g2
g3
Ntp229
Rp230
(lp231
F-5.445976257324219
aF4.900818347930908
aF0.30755555629730225
abag1
(g2
g3
Ntp232
Rp233
(lp234
F-5.4416632652282715
aF4.887107849121094
aF0.3075615167617798
abag1
(g2
g3
Ntp235
Rp236
(lp237
F-5.435387134552002
aF4.874029159545898
aF0.3075646162033081
abag1
(g2
g3
Ntp238
Rp239
(lp240
F-5.425253391265869
aF4.862227916717529
aF0.30756205320358276
abag1
(g2
g3
Ntp241
Rp242
(lp243
F-5.405584812164307
aF4.853641986846924
aF0.30754533410072327
abag1
(g2
g3
Ntp244
Rp245
(lp246
F-5.393484115600586
aF4.842658519744873
aF0.3075397312641144
abag1
(g2
g3
Ntp247
Rp248
(lp249
F-5.376614093780518
aF4.833374977111816
aF0.30752697587013245
abag1
(g2
g3
Ntp250
Rp251
(lp252
F-5.366337299346924
aF4.821929931640625
aF0.3075239062309265
abag1
(g2
g3
Ntp253
Rp254
(lp255
F-5.359793663024902
aF4.809229850769043
aF0.3075263798236847
abag1
(g2
g3
Ntp256
Rp257
(lp258
F-5.355082035064697
aF4.795896530151367
aF0.30753156542778015
abag1
(g2
g3
Ntp259
Rp260
(lp261
F-5.338083744049072
aF4.786994934082031
aF0.3075183629989624
abag1
(g2
g3
Ntp262
Rp263
(lp264
F-5.328579425811768
aF4.775473594665527
aF0.30751627683639526
abag1
(g2
g3
Ntp265
Rp266
(lp267
F-5.323720455169678
aF4.762276649475098
aF0.30752119421958923
abag1
(g2
g3
Ntp268
Rp269
(lp270
F-5.299145221710205
aF4.756485462188721
aF0.3074963092803955
abag1
(g2
g3
Ntp271
Rp272
(lp273
F-5.289531230926514
aF4.7451958656311035
aF0.3074939250946045
abag1
(g2
g3
Ntp274
Rp275
(lp276
F-5.2798752784729
aF4.733968257904053
aF0.3074914515018463
abag1
(g2
g3
Ntp277
Rp278
(lp279
F-5.27017879486084
aF4.722803592681885
aF0.3074888586997986
abag1
(g2
g3
Ntp280
Rp281
(lp282
F-5.259511470794678
aF4.712069511413574
aF0.30748477578163147
abag1
(g2
g3
Ntp283
Rp284
(lp285
F-5.248807430267334
aF4.701406002044678
aF0.3074805736541748
abag1
(g2
g3
Ntp286
Rp287
(lp288
F-5.233433723449707
aF4.692694187164307
aF0.3074691593647003
abag1
(g2
g3
Ntp289
Rp290
(lp291
F-5.228214740753174
aF4.67991304397583
aF0.3074732720851898
abag1
(g2
g3
Ntp292
Rp293
(lp294
F-5.2100138664245605
aF4.672532081604004
aF0.3074573576450348
abag1
(g2
g3
Ntp295
Rp296
(lp297
F-5.202863693237305
aF4.660629749298096
aF0.30745846033096313
abag1
(g2
g3
Ntp298
Rp299
(lp300
F-5.1947455406188965
aF4.649158954620361
aF0.3074580132961273
abag1
(g2
g3
Ntp301
Rp302
(lp303
F-5.175564289093018
aF4.642488956451416
aF0.3074403405189514
abag1
(g2
g3
Ntp304
Rp305
(lp306
F-5.158212661743164
aF4.635162830352783
aF0.3074254095554352
abag1
(g2
g3
Ntp307
Rp308
(lp309
F-5.151828289031982
aF4.623114585876465
aF0.3074275553226471
abag1
(g2
g3
Ntp310
Rp311
(lp312
F-5.14630651473999
aF4.610690593719482
aF0.30743101239204407
abag1
(g2
g3
Ntp313
Rp314
(lp315
F-5.140730857849121
aF4.59829044342041
aF0.30743440985679626
abag1
(g2
g3
Ntp316
Rp317
(lp318
F-5.135100364685059
aF4.585914611816406
aF0.3074377179145813
abag1
(g2
g3
Ntp319
Rp320
(lp321
F-5.121249198913574
aF4.577343940734863
aF0.3074280023574829
abag1
(g2
g3
Ntp322
Rp323
(lp324
F-5.101943016052246
aF4.571413516998291
aF0.3074095845222473
abag1
(g2
g3
Ntp325
Rp326
(lp327
F-5.083542823791504
aF4.5651984214782715
aF0.30739250779151917
abag1
(g2
g3
Ntp328
Rp329
(lp330
F-5.07596492767334
aF4.55393648147583
aF0.30739253759384155
abag1
(g2
g3
Ntp331
Rp332
(lp333
F-5.070141792297363
aF4.541843891143799
aF0.30739539861679077
abag1
(g2
g3
Ntp334
Rp335
(lp336
F-5.057081699371338
aF4.533294677734375
aF0.3073866069316864
abag1
(g2
g3
Ntp337
Rp338
(lp339
F-5.04758358001709
aF4.523059368133545
aF0.3073835074901581
abag1
(g2
g3
Ntp340
Rp341
(lp342
F-5.0371551513671875
aF4.513328552246094
aF0.307378888130188
abag1
(g2
g3
Ntp343
Rp344
(lp345
F-5.031155109405518
aF4.501405715942383
aF0.30738139152526855
abag1
(g2
g3
Ntp346
Rp347
(lp348
F-5.017090797424316
aF4.493607044219971
aF0.30737078189849854
abag1
(g2
g3
Ntp349
Rp350
(lp351
F-5.004786968231201
aF4.484986782073975
aF0.30736300349235535
abag1
(g2
g3
Ntp352
Rp353
(lp354
F-4.998663902282715
aF4.473205089569092
aF0.3073652386665344
abag1
(g2
g3
Ntp355
Rp356
(lp357
F-4.980993747711182
aF4.467520713806152
aF0.3073485791683197
abag1
(g2
g3
Ntp358
Rp359
(lp360
F-4.973912239074707
aF4.456314563751221
aF0.30734917521476746
abag1
(g2
g3
Ntp361
Rp362
(lp363
F-4.9676642417907715
aF4.444667816162109
aF0.30735114216804504
abag1
(g2
g3
Ntp364
Rp365
(lp366
F-4.961365699768066
aF4.433048725128174
aF0.30735301971435547
abag1
(g2
g3
Ntp367
Rp368
(lp369
F-4.957644462585449
aF4.420010566711426
aF0.30735915899276733
abag1
(g2
g3
Ntp370
Rp371
(lp372
F-4.956481456756592
aF4.405518531799316
aF0.30736956000328064
abag1
(g2
g3
Ntp373
Rp374
(lp375
F-4.962216854095459
aF4.387089252471924
aF0.307391494512558
abag1
(g2
g3
Ntp376
Rp377
(lp378
F-4.964363098144531
aF4.3705573081970215
aF0.30740755796432495
abag1
(g2
g3
Ntp379
Rp380
(lp381
F-4.957740783691406
aF4.358953475952148
aF0.30740904808044434
abag1
(g2
g3
Ntp382
Rp383
(lp384
F-4.95193338394165
aF4.346877098083496
aF0.30741187930107117
abag1
(g2
g3
Ntp385
Rp386
(lp387
F-4.959017276763916
aF4.327246189117432
aF0.30743640661239624
abag1
(g2
g3
Ntp388
Rp389
(lp390
F-4.965980052947998
aF4.30752420425415
aF0.30746087431907654
abag1
(g2
g3
Ntp391
Rp392
(lp393
F-4.963376045227051
aF4.293351173400879
aF0.30746927857398987
abag1
(g2
g3
Ntp394
Rp395
(lp396
F-4.957273483276367
aF4.281235694885254
aF0.3074718117713928
abag1
(g2
g3
Ntp397
Rp398
(lp399
F-4.952824115753174
aF4.26810359954834
aF0.3074771463871002
abag1
(g2
g3
Ntp400
Rp401
(lp402
F-4.969606876373291
aF4.241884708404541
aF0.30751872062683105
abag1
(g2
g3
Ntp403
Rp404
(lp405
F-4.965821743011475
aF4.228148937225342
aF0.3075253665447235
abag1
(g2
g3
Ntp406
Rp407
(lp408
F-4.965356349945068
aF4.212290287017822
aF0.3075377345085144
abag1
(g2
g3
Ntp409
Rp410
(lp411
F-4.963113307952881
aF4.197474002838135
aF0.30754709243774414
abag1
(g2
g3
Ntp412
Rp413
(lp414
F-4.957420825958252
aF4.184800148010254
aF0.3075505793094635
abag1
(g2
g3
Ntp415
Rp416
(lp417
F-4.956710338592529
aF4.168889999389648
aF0.3075626790523529
abag1
(g2
g3
Ntp418
Rp419
(lp420
F-4.96428918838501
aF4.147495269775391
aF0.30758923292160034
abag1
(g2
g3
Ntp421
Rp422
(lp423
F-4.9625420570373535
aF4.132046699523926
aF0.3075997233390808
abag1
(g2
g3
Ntp424
Rp425
(lp426
F-4.962377071380615
aF4.115474224090576
aF0.3076130449771881
abag1
(g2
g3
Ntp427
Rp428
(lp429
F-4.9579644203186035
aF4.101654052734375
aF0.30761897563934326
abag1
(g2
g3
Ntp430
Rp431
(lp432
F-4.950169086456299
aF4.090080738067627
aF0.30761903524398804
abag1
(g2
g3
Ntp433
Rp434
(lp435
F-4.955534934997559
aF4.069516181945801
aF0.30764225125312805
abag1
(g2
g3
Ntp436
Rp437
(lp438
F-4.950892448425293
aF4.055683135986328
aF0.3076479136943817
abag1
(g2
g3
Ntp439
Rp440
(lp441
F-4.965057849884033
aF4.028717517852783
aF0.3076869547367096
abag1
(g2
g3
Ntp442
Rp443
(lp444
F-4.962672233581543
aF4.013089656829834
aF0.3076968193054199
abag1
(g2
g3
Ntp445
Rp446
(lp447
F-4.958569526672363
aF3.9986047744750977
aF0.3077036738395691
abag1
(g2
g3
Ntp448
Rp449
(lp450
F-4.958456516265869
aF3.981210231781006
aF0.3077177107334137
abag1
(g2
g3
Ntp451
Rp452
(lp453
F-4.957432270050049
aF3.9643664360046387
aF0.30773022770881653
abag1
(g2
g3
Ntp454
Rp455
(lp456
F-4.974089622497559
aF3.934537410736084
aF0.3077745735645294
abag1
(g2
g3
Ntp457
Rp458
(lp459
F-4.965564727783203
aF3.9228949546813965
aF0.30777379870414734
abag1
(g2
g3
Ntp460
Rp461
(lp462
F-4.962610244750977
aF3.9071178436279297
aF0.3077830970287323
abag1
(g2
g3
Ntp463
Rp464
(lp465
F-4.958767890930176
aF3.8919286727905273
aF0.3077908456325531
abag1
(g2
g3
Ntp466
Rp467
(lp468
F-4.962821006774902
aF3.8707053661346436
aF0.30781301856040955
abag1
(g2
g3
Ntp469
Rp470
(lp471
F-4.960379123687744
aF3.8542606830596924
aF0.3078234791755676
abag1
(g2
g3
Ntp472
Rp473
(lp474
F-4.956258773803711
aF3.839019298553467
aF0.30783095955848694
abag1
(g2
g3
Ntp475
Rp476
(lp477
F-4.956794738769531
aF3.8200948238372803
aF0.3078470230102539
abag1
(g2
g3
Ntp478
Rp479
(lp480
F-4.957215785980225
aF3.801126718521118
aF0.3078629672527313
abag1
(g2
g3
Ntp481
Rp482
(lp483
F-4.96458101272583
aF3.776533365249634
aF0.3078919053077698
abag1
(g2
g3
Ntp484
Rp485
(lp486
F-4.969437122344971
aF3.7537074089050293
aF0.3079163432121277
abag1
(g2
g3
Ntp487
Rp488
(lp489
F-4.980375289916992
aF3.7257823944091797
aF0.30795228481292725
abag1
(g2
g3
Ntp490
Rp491
(lp492
F-4.973268508911133
aF3.712223529815674
aF0.3079547584056854
abag1
(g2
g3
Ntp493
Rp494
(lp495
F-4.9676408767700195
aF3.6974174976348877
aF0.30796006321907043
abag1
(g2
g3
Ntp496
Rp497
(lp498
F-4.960393905639648
aF3.6838936805725098
aF0.3079623281955719
abag1
(g2
g3
Ntp499
Rp500
(lp501
F-4.966133117675781
aF3.659501552581787
aF0.30798912048339844
abag1
(g2
g3
Ntp502
Rp503
(lp504
F-4.967884540557861
aF3.638237476348877
aF0.3080085813999176
abag1
(g2
g3
Ntp505
Rp506
(lp507
F-4.97636079788208
aF3.6110904216766357
aF0.30804088711738586
abag1
(g2
g3
Ntp508
Rp509
(lp510
F-4.970221996307373
aF3.5961880683898926
aF0.3080456554889679
abag1
(g2
g3
Ntp511
Rp512
(lp513
F-4.9670305252075195
aF3.5786807537078857
aF0.3080560863018036
abag1
(g2
g3
Ntp514
Rp515
(lp516
F-4.97052001953125
aF3.5552432537078857
aF0.3080793619155884
abag1
(g2
g3
Ntp517
Rp518
(lp519
F-4.9701008796691895
aF3.535033941268921
aF0.3080953359603882
abag1
(g2
g3
Ntp520
Rp521
(lp522
F-4.9680609703063965
aF3.516111373901367
aF0.30810829997062683
abag1
(g2
g3
Ntp523
Rp524
(lp525
F-4.962925910949707
aF3.4998302459716797
aF0.3081153929233551
abag1
(g2
g3
Ntp526
Rp527
(lp528
F-4.964378833770752
aF3.4775168895721436
aF0.30813533067703247
abag1
(g2
g3
Ntp529
Rp530
(lp531
F-4.967904567718506
aF3.453125
aF0.3081594407558441
abag1
(g2
g3
Ntp532
Rp533
(lp534
F-4.957279682159424
aF3.441514253616333
aF0.3081561028957367
abag1
(g2
g3
Ntp535
Rp536
(lp537
F-4.9473371505737305
aF3.4292702674865723
aF0.3081541061401367
abag1
(g2
g3
Ntp538
Rp539
(lp540
F-4.964360237121582
aF3.391791343688965
aF0.30820515751838684
abag1
(g2
g3
Ntp541
Rp542
(lp543
F-4.965104579925537
aF3.369216203689575
aF0.3082244396209717
abag1
(g2
g3
Ntp544
Rp545
(lp546
F-4.967151641845703
aF3.345208168029785
aF0.3082464635372162
abag1
(g2
g3
Ntp547
Rp548
(lp549
F-4.9567766189575195
aF3.332909345626831
aF0.308243989944458
abag1
(g2
g3
Ntp550
Rp551
(lp552
F-4.9643025398254395
aF3.3032588958740234
aF0.3082772195339203
abag1
(g2
g3
Ntp553
Rp554
(lp555
F-4.953023433685303
aF3.2916653156280518
aF0.3082730770111084
abag1
(g2
g3
Ntp556
Rp557
(lp558
F-4.963771820068359
aF3.258359432220459
aF0.30831319093704224
abag1
(g2
g3
Ntp559
Rp560
(lp561
F-4.960806369781494
aF3.238307476043701
aF0.30832594633102417
abag1
(g2
g3
Ntp562
Rp563
(lp564
F-4.9640703201293945
aF3.211858034133911
aF0.30835142731666565
abag1
(g2
g3
Ntp565
Rp566
(lp567
F-4.9594221115112305
aF3.1931538581848145
aF0.30836108326911926
abag1
(g2
g3
Ntp568
Rp569
(lp570
F-4.949062347412109
aF3.1801540851593018
aF0.30835920572280884
abag1
(g2
g3
Ntp571
Rp572
(lp573
F-4.964417457580566
aF3.140650987625122
aF0.3084098696708679
abag1
(g2
g3
Ntp574
Rp575
(lp576
F-4.968380928039551
aF3.1124894618988037
aF0.30843761563301086
abag1
(g2
g3
Ntp577
Rp578
(lp579
F-4.959031105041504
aF3.0979864597320557
aF0.30843815207481384
abag1
(g2
g3
Ntp580
Rp581
(lp582
F-4.957852840423584
aF3.0747950077056885
aF0.3084556460380554
abag1
(g2
g3
Ntp583
Rp584
(lp585
F-4.954470157623291
aF3.0537495613098145
aF0.30846869945526123
abag1
(g2
g3
Ntp586
Rp587
(lp588
F-4.954358100891113
aF3.0290184020996094
aF0.30848872661590576
abag1
(g2
g3
Ntp589
Rp590
(lp591
F-4.960180282592773
aF2.9976162910461426
aF0.3085213303565979
abag1
(g2
g3
Ntp592
Rp593
(lp594
F-4.9516143798828125
aF2.981613874435425
aF0.3085240423679352
abag1
(g2
g3
Ntp595
Rp596
(lp597
F-4.948329448699951
aF2.9597012996673584
aF0.30853796005249023
abag1
(g2
g3
Ntp598
Rp599
(lp600
F-4.94957971572876
aF2.93255352973938
aF0.3085615932941437
abag1
(g2
g3
Ntp601
Rp602
(lp603
F-4.961278915405273
aF2.893386125564575
aF0.3086076080799103
abag1
(g2
g3
Ntp604
Rp605
(lp606
F-4.9614410400390625
aF2.8668105602264404
aF0.30862945318222046
abag1
(g2
g3
Ntp607
Rp608
(lp609
F-4.958789348602295
aF2.8431880474090576
aF0.3086455166339874
abag1
(g2
g3
Ntp610
Rp611
(lp612
F-4.9631853103637695
aF2.8112189769744873
aF0.3086768388748169
abag1
(g2
g3
Ntp613
Rp614
(lp615
F-4.9693074226379395
aF2.7768783569335938
aF0.3087122142314911
abag1
(g2
g3
Ntp616
Rp617
(lp618
F-4.974532127380371
aF2.743187665939331
aF0.30874595046043396
abag1
(g2
g3
Ntp619
Rp620
(lp621
F-4.960809230804443
aF2.7315545082092285
aF0.30873891711235046
abag1
(g2
g3
Ntp622
Rp623
(lp624
F-4.947035789489746
aF2.7199816703796387
aF0.30873173475265503
abag1
(g2
g3
Ntp625
Rp626
(lp627
F-4.92810583114624
aF2.714627981185913
aF0.30871331691741943
abag1
(g2
g3
Ntp628
Rp629
(lp630
F-4.895846366882324
aF2.7256031036376953
aF0.30866551399230957
abag1
(g2
g3
Ntp631
Rp632
(lp633
F-4.8618388175964355
aF2.7391250133514404
aF0.30861353874206543
abag1
(g2
g3
Ntp634
Rp635
(lp636
F-4.838049411773682
aF2.74043345451355
aF0.3085837960243225
abag1
(g2
g3
Ntp637
Rp638
(lp639
F-4.818068504333496
aF2.7372047901153564
aF0.30856236815452576
abag1
(g2
g3
Ntp640
Rp641
(lp642
F-4.773876190185547
aF2.7646484375
aF0.30848678946495056
abag1
(g2
g3
Ntp643
Rp644
(lp645
F-4.750980377197266
aF2.7656850814819336
aF0.3084583580493927
abag1
(g2
g3
Ntp646
Rp647
(lp648
F-4.726912021636963
aF2.768439531326294
aF0.3084271252155304
abag1
(g2
g3
Ntp649
Rp650
(lp651
F-4.6839728355407715
aF2.795884609222412
aF0.3083530366420746
abag1
(g2
g3
Ntp652
Rp653
(lp654
F-4.657724380493164
aF2.802198886871338
aF0.30831626057624817
abag1
(g2
g3
Ntp655
Rp656
(lp657
F-4.621306896209717
aF2.822230815887451
aF0.3082560896873474
abag1
(g2
g3
Ntp658
Rp659
(lp660
F-4.596520900726318
aF2.8273298740386963
aF0.30822205543518066
abag1
(g2
g3
Ntp661
Rp662
(lp663
F-4.5694355964660645
aF2.8357954025268555
aF0.3081825375556946
abag1
(g2
g3
Ntp664
Rp665
(lp666
F-4.539499759674072
aF2.8484625816345215
aF0.3081361651420593
abag1
(g2
g3
Ntp667
Rp668
(lp669
F-4.513258457183838
aF2.8564884662628174
aF0.3080980181694031
abag1
(g2
g3
Ntp670
Rp671
(lp672
F-4.480091571807861
aF2.874404191970825
aF0.3080434799194336
abag1
(g2
g3
Ntp673
Rp674
(lp675
F-4.466946125030518
aF2.8649275302886963
aF0.30803534388542175
abag1
(g2
g3
Ntp676
Rp677
(lp678
F-4.450861930847168
aF2.8595831394195557
aF0.30802032351493835
abag1
(g2
g3
Ntp679
Rp680
(lp681
F-4.417495250701904
aF2.878847360610962
aF0.3079644441604614
abag1
(g2
g3
Ntp682
Rp683
(lp684
F-4.386627674102783
aF2.89506459236145
aF0.30791404843330383
abag1
(g2
g3
Ntp685
Rp686
(lp687
F-4.359354496002197
aF2.9065582752227783
aF0.30787184834480286
abag1
(g2
g3
Ntp688
Rp689
(lp690
F-4.334482192993164
aF2.9149327278137207
aF0.30783504247665405
abag1
(g2
g3
Ntp691
Rp692
(lp693
F-4.31870698928833
aF2.9102282524108887
aF0.3078198730945587
abag1
(g2
g3
Ntp694
Rp695
(lp696
F-4.286191463470459
aF2.9305014610290527
aF0.3077642023563385
abag1
(g2
g3
Ntp697
Rp698
(lp699
F-4.2610979080200195
aF2.940181016921997
aF0.30772608518600464
abag1
(g2
g3
Ntp700
Rp701
(lp702
F-4.243285655975342
aF2.9391720294952393
aF0.30770546197891235
abag1
(g2
g3
Ntp703
Rp704
(lp705
F-4.22440767288208
aF2.9399361610412598
aF0.3076820969581604
abag1
(g2
g3
Ntp706
Rp707
(lp708
F-4.204486846923828
aF2.942487955093384
aF0.30765601992607117
abag1
(g2
g3
Ntp709
Rp710
(lp711
F-4.1884026527404785
aF2.9392645359039307
aF0.3076392710208893
abag1
(g2
g3
Ntp712
Rp713
(lp714
F-4.148742198944092
aF2.9732699394226074
aF0.30756378173828125
abag1
(g2
g3
Ntp715
Rp716
(lp717
F-4.133901596069336
aF2.9686245918273926
aF0.30754968523979187
abag1
(g2
g3
Ntp718
Rp719
(lp720
F-4.0979108810424805
aF2.99800705909729
aF0.30748239159584045
abag1
(g2
g3
Ntp721
Rp722
(lp723
F-4.079009056091309
aF3.000410556793213
aF0.30745768547058105
abag1
(g2
g3
Ntp724
Rp725
(lp726
F-4.05599308013916
aF3.009751319885254
aF0.30742233991622925
abag1
(g2
g3
Ntp727
Rp728
(lp729
F-4.032057762145996
aF3.020949125289917
aF0.3073843717575073
abag1
(g2
g3
Ntp730
Rp731
(lp732
F-4.019556045532227
aF3.0134260654449463
aF0.3073754608631134
abag1
(g2
g3
Ntp733
Rp734
(lp735
F-3.425159454345703
aF3.739027738571167
aF0.30606821179389954
abag1
(g2
g3
Ntp736
Rp737
(lp738
F-3.4001429080963135
aF3.7643280029296875
aF0.3060174584388733
abag1
(g2
g3
Ntp739
Rp740
(lp741
F-3.390890598297119
aF3.7595551013946533
aF0.3060101866722107
abag1
(g2
g3
Ntp742
Rp743
(lp744
F-3.202644109725952
aF3.8973207473754883
aF0.30567118525505066
abag1
(g2
g3
Ntp745
Rp746
(lp747
F-3.1755542755126953
aF3.9344656467437744
aF0.3056083023548126
abag1
(g2
g3
Ntp748
Rp749
(lp750
F-3.1556968688964844
aF3.9562673568725586
aF0.30556660890579224
abag1
(g2
g3
Ntp751
Rp752
(lp753
F-2.938194990158081
aF4.125153064727783
aF0.30516698956489563
abag1
(g2
g3
Ntp754
Rp755
(lp756
F-2.9305214881896973
aF4.122392177581787
aF0.3051599860191345
abag1
(g2
g3
Ntp757
Rp758
(lp759
F-2.9228360652923584
aF4.119665145874023
aF0.305152952671051
abag1
(g2
g3
Ntp760
Rp761
(lp762
F-2.8629894256591797
aF3.5284171104431152
aF0.30556270480155945
abag1
(g2
g3
Ntp763
Rp764
(lp765
F-2.852712869644165
aF3.5259902477264404
aF0.30555230379104614
abag1
(g2
g3
Ntp766
Rp767
(lp768
F-2.7559890747070312
aF3.5258097648620605
aF0.3054359257221222
abag1
(g2
g3
Ntp769
Rp770
(lp771
F-2.7457022666931152
aF3.5238497257232666
aF0.30542513728141785
abag1
(g2
g3
Ntp772
Rp773
(lp774
F-2.7354068756103516
aF3.5219345092773438
aF0.3054142892360687
abag1
(g2
g3
Ntp775
Rp776
(lp777
F-2.5975213050842285
aF3.683224678039551
aF0.30511677265167236
abag1
(g2
g3
Ntp778
Rp779
(lp780
F-2.5879225730895996
aF3.6819546222686768
aF0.3051062524318695
abag1
(g2
g3
Ntp781
Rp782
(lp783
F-2.5783185958862305
aF3.6807262897491455
aF0.3050956726074219
abag1
(g2
g3
Ntp784
Rp785
(lp786
F-2.5683913230895996
aF2.425687074661255
aF0.30610644817352295
abag1
(g2
g3
Ntp787
Rp788
(lp789
F-2.5531609058380127
aF2.4265506267547607
aF0.3060874044895172
abag1
(g2
g3
Ntp790
Rp791
(lp792
F-2.537670135498047
aF2.431471824645996
aF0.30606475472450256
abag1
(g2
g3
Ntp793
Rp794
(lp795
F-2.522099494934082
aF2.4384586811065674
aF0.30604028701782227
abag1
(g2
g3
Ntp796
Rp797
(lp798
F-2.5063560009002686
aF2.4495084285736084
aF0.3060123324394226
abag1
(g2
g3
Ntp799
Rp800
(lp801
F-2.4910993576049805
aF2.4536399841308594
aF0.3059905767440796
abag1
(g2
g3
Ntp802
Rp803
(lp804
F-2.4752728939056396
aF2.4698238372802734
aF0.3059583306312561
abag1
(g2
g3
Ntp805
Rp806
(lp807
F-2.460148572921753
aF2.474093437194824
aF0.30593663454055786
abag1
(g2
g3
Ntp808
Rp809
(lp810
F-2.4450230598449707
aF2.479428768157959
aF0.3059140741825104
abag1
(g2
g3
Ntp811
Rp812
(lp813
F-2.4293811321258545
aF2.4998207092285156
aF0.305878609418869
abag1
(g2
g3
Ntp814
Rp815
(lp816
F-2.414553642272949
aF2.5012943744659424
aF0.3058595359325409
abag1
(g2
g3
Ntp817
Rp818
(lp819
F-2.3989293575286865
aF2.5308210849761963
aF0.3058166801929474
abag1
(g2
g3
Ntp820
Rp821
(lp822
F-2.3840084075927734
aF2.5424246788024902
aF0.3057892322540283
abag1
(g2
g3
Ntp823
Rp824
(lp825
F-2.369393825531006
aF2.5440967082977295
aF0.30577027797698975
abag1
(g2
g3
Ntp826
Rp827
(lp828
F-2.3548271656036377
aF2.543832778930664
aF0.3057529330253601
abag1
(g2
g3
Ntp829
Rp830
(lp831
F-2.3399007320404053
aF2.5746302604675293
aF0.3057098686695099
abag1
(g2
g3
Ntp832
Rp833
(lp834
F-2.3254458904266357
aF2.5774946212768555
aF0.30569010972976685
abag1
(g2
g3
Ntp835
Rp836
(lp837
F-2.3109683990478516
aF2.5974221229553223
aF0.30565643310546875
abag1
(g2
g3
Ntp838
Rp839
(lp840
F-2.2966411113739014
aF2.6014130115509033
aF0.305635929107666
abag1
(g2
g3
Ntp841
Rp842
(lp843
F-2.282336950302124
aF2.6034655570983887
aF0.3056170344352722
abag1
(g2
g3
Ntp844
Rp845
(lp846
F-2.2681119441986084
aF2.6115806102752686
aF0.3055932819843292
abag1
(g2
g3
Ntp847
Rp848
(lp849
F-2.254162073135376
aF2.6337554454803467
aF0.3055584132671356
abag1
(g2
g3
Ntp850
Rp851
(lp852
F-2.2401394844055176
aF2.6419923305511475
aF0.30553480982780457
abag1
(g2
g3
Ntp853
Rp854
(lp855
F-2.226001262664795
aF2.64229154586792
aF0.3055175244808197
abag1
(g2
g3
Ntp856
Rp857
(lp858
F-2.212113618850708
aF2.651648759841919
aF0.30549317598342896
abag1
(g2
g3
Ntp859
Rp860
(lp861
F-2.198049545288086
aF2.6530697345733643
aF0.3054750859737396
abag1
(g2
g3
Ntp862
Rp863
(lp864
F-2.1841421127319336
aF2.6585488319396973
aF0.3054538667201996
abag1
(g2
g3
Ntp865
Rp866
(lp867
F-2.1704843044281006
aF2.669083833694458
aF0.3054288327693939
abag1
(g2
g3
Ntp868
Rp869
(lp870
F-2.157141923904419
aF2.684671640396118
aF0.3054000735282898
abag1
(g2
g3
Ntp871
Rp872
(lp873
F-2.1435866355895996
aF2.6933224201202393
aF0.30537667870521545
abag1
(g2
g3
Ntp874
Rp875
(lp876
F-2.1300501823425293
aF2.7010321617126465
aF0.3053540885448456
abag1
(g2
g3
Ntp877
Rp878
(lp879
F-2.1164615154266357
aF2.7068028450012207
aF0.3053330183029175
abag1
(g2
g3
Ntp880
Rp881
(lp882
F-2.102607011795044
aF2.7076408863067627
aF0.30531564354896545
abag1
(g2
g3
Ntp883
Rp884
(lp885
F-2.0896263122558594
aF2.721510410308838
aF0.305288702249527
abag1
(g2
g3
Ntp886
Rp887
(lp888
F-2.0778322219848633
aF2.750394344329834
aF0.30525097250938416
abag1
(g2
g3
Ntp889
Rp890
(lp891
F-2.0641684532165527
aF2.7514004707336426
aF0.3052336871623993
abag1
(g2
g3
Ntp892
Rp893
(lp894
F-2.050589084625244
aF2.7534635066986084
aF0.30521565675735474
abag1
(g2
g3
Ntp895
Rp896
(lp897
F-2.03837251663208
aF2.7715280055999756
aF0.3051862120628357
abag1
(g2
g3
Ntp898
Rp899
(lp900
F-2.0252444744110107
aF2.777686595916748
aF0.3051653802394867
abag1
(g2
g3
Ntp901
Rp902
(lp903
F-2.0120723247528076
aF2.782904863357544
aF0.305145263671875
abag1
(g2
g3
Ntp904
Rp905
(lp906
F-1.9989405870437622
aF2.7881786823272705
aF0.3051251471042633
abag1
(g2
g3
Ntp907
Rp908
(lp909
F-1.9879850149154663
aF2.814399242401123
aF0.30509060621261597
abag1
(g2
g3
Ntp910
Rp911
(lp912
F-1.9746012687683105
aF2.8157968521118164
aF0.3050733208656311
abag1
(g2
g3
Ntp913
Rp914
(lp915
F-1.961223840713501
aF2.8172531127929688
aF0.30505603551864624
abag1
(g2
g3
Ntp916
Rp917
(lp918
F-1.948770523071289
aF2.8267147541046143
aF0.3050333261489868
abag1
(g2
g3
Ntp919
Rp920
(lp921
F-1.935441017150879
aF2.8282835483551025
aF0.3050159811973572
abag1
(g2
g3
Ntp922
Rp923
(lp924
F-1.9227352142333984
aF2.834872007369995
aF0.3049953281879425
abag1
(g2
g3
Ntp925
Rp926
(lp927
F-1.9109740257263184
aF2.8484559059143066
aF0.3049700856208801
abag1
(g2
g3
Ntp928
Rp929
(lp930
F-1.8989280462265015
aF2.8591108322143555
aF0.3049468994140625
abag1
(g2
g3
Ntp931
Rp932
(lp933
F-1.8866947889328003
aF2.8678314685821533
aF0.3049250543117523
abag1
(g2
g3
Ntp934
Rp935
(lp936
F-1.873967170715332
aF2.872640609741211
aF0.30490580201148987
abag1
(g2
g3
Ntp937
Rp938
(lp939
F-1.8622888326644897
aF2.884429693222046
aF0.30488210916519165
abag1
(g2
g3
Ntp940
Rp941
(lp942
F-1.8493611812591553
aF2.887363910675049
aF0.30486416816711426
abag1
(g2
g3
Ntp943
Rp944
(lp945
F-1.8373725414276123
aF2.89628267288208
aF0.30484244227409363
abag1
(g2
g3
Ntp946
Rp947
(lp948
F-1.8254531621932983
aF2.9052488803863525
aF0.3048207759857178
abag1
(g2
g3
Ntp949
Rp950
(lp951
F-1.8124674558639526
aF2.9073550701141357
aF0.30480343103408813
abag1
(g2
g3
Ntp952
Rp953
(lp954
F-1.799491047859192
aF2.909517765045166
aF0.3047860264778137
abag1
(g2
g3
Ntp955
Rp956
(lp957
F-1.7865240573883057
aF2.9117369651794434
aF0.3047686219215393
abag1
(g2
g3
Ntp958
Rp959
(lp960
F-1.7744429111480713
aF2.918935775756836
aF0.30474817752838135
abag1
(g2
g3
Ntp961
Rp962
(lp963
F-1.7615172863006592
aF2.9212639331817627
aF0.30473071336746216
abag1
(g2
g3
Ntp964
Rp965
(lp966
F-1.7495206594467163
aF2.9285635948181152
aF0.304710328578949
abag1
(g2
g3
Ntp967
Rp968
(lp969
F-1.7377655506134033
aF2.936893939971924
aF0.3046893775463104
abag1
(g2
g3
Ntp970
Rp971
(lp972
F-1.7249187231063843
aF2.939382314682007
aF0.30467188358306885
abag1
(g2
g3
Ntp973
Rp974
(lp975
F-1.7109034061431885
aF2.9360435009002686
aF0.3046577274799347
abag1
(g2
g3
Ntp976
Rp977
(lp978
F-1.6956429481506348
aF2.926893949508667
aF0.3046467900276184
abag1
(g2
g3
Ntp979
Rp980
(lp981
F-1.676188588142395
aF2.8982467651367188
aF0.30464670062065125
abag1
(g2
g3
Ntp982
Rp983
(lp984
F-1.6589858531951904
aF2.8814475536346436
aF0.30463966727256775
abag1
(g2
g3
Ntp985
Rp986
(lp987
F-1.6414109468460083
aF2.863765239715576
aF0.30463290214538574
abag1
(g2
g3
Ntp988
Rp989
(lp990
F-1.62257981300354
aF2.841299295425415
aF0.30462855100631714
abag1
(g2
g3
Ntp991
Rp992
(lp993
F-1.6062065362930298
aF2.830641031265259
aF0.3046174943447113
abag1
(g2
g3
Ntp994
Rp995
(lp996
F-1.5915387868881226
aF2.8278605937957764
aF0.30460208654403687
abag1
(g2
g3
Ntp997
Rp998
(lp999
F-1.5680675506591797
aF2.788174629211426
aF0.304606169462204
abag1
(g2
g3
Ntp1000
Rp1001
(lp1002
F-1.5512845516204834
aF2.777796506881714
aF0.30459439754486084
abag1
(g2
g3
Ntp1003
Rp1004
(lp1005
F-1.5377453565597534
aF2.781100034713745
aF0.3045754134654999
abag1
(g2
g3
Ntp1006
Rp1007
(lp1008
F-1.5139979124069214
aF2.7437257766723633
aF0.3045772612094879
abag1
(g2
g3
Ntp1009
Rp1010
(lp1011
F-1.5003104209899902
aF2.7471923828125
aF0.3045579493045807
abag1
(g2
g3
Ntp1012
Rp1013
(lp1014
F-1.47555673122406
aF2.708137035369873
aF0.30455994606018066
abag1
(g2
g3
Ntp1015
Rp1016
(lp1017
F-1.4542880058288574
aF2.6837384700775146
aF0.3045542240142822
abag1
(g2
g3
Ntp1018
Rp1019
(lp1020
F-1.4294071197509766
aF2.646913766860962
aF0.3045542538166046
abag1
(g2
g3
Ntp1021
Rp1022
(lp1023
F-1.4145046472549438
aF2.647857189178467
aF0.30453553795814514
abag1
(g2
g3
Ntp1024
Rp1025
(lp1026
F-1.3904577493667603
aF2.616119623184204
aF0.3045324385166168
abag1
(g2
g3
Ntp1027
Rp1028
(lp1029
F-1.367754578590393
aF2.5903031826019287
aF0.30452612042427063
abag1
(g2
g3
Ntp1030
Rp1031
(lp1032
F-1.347025752067566
aF2.572310209274292
aF0.3045158386230469
abag1
(g2
g3
Ntp1033
Rp1034
(lp1035
F-1.3325917720794678
aF2.5765068531036377
aF0.30449503660202026
abag1
(g2
g3
Ntp1036
Rp1037
(lp1038
F-1.3030462265014648
aF2.5299720764160156
aF0.3044973611831665
abag1
(g2
g3
Ntp1039
Rp1040
(lp1041
F-1.2878488302230835
aF2.5324466228485107
aF0.3044770359992981
abag1
(g2
g3
Ntp1042
Rp1043
(lp1044
F-1.2685401439666748
aF2.5216081142425537
aF0.30446261167526245
abag1
(g2
g3
Ntp1045
Rp1046
(lp1047
F-1.2371982336044312
aF2.4726920127868652
aF0.304464727640152
abag1
(g2
g3
Ntp1048
Rp1049
(lp1050
F-1.2159854173660278
aF2.457350730895996
aF0.30445167422294617
abag1
(g2
g3
Ntp1051
Rp1052
(lp1053
F-1.185123085975647
aF2.4126198291778564
aF0.30445095896720886
abag1
(g2
g3
Ntp1054
Rp1055
(lp1056
F-1.1647158861160278
aF2.40136456489563
aF0.3044355511665344
abag1
(g2
g3
Ntp1057
Rp1058
(lp1059
F-1.1495379209518433
aF2.406358480453491
aF0.30441319942474365
abag1
(g2
g3
Ntp1060
Rp1061
(lp1062
F-1.1088820695877075
aF2.3355910778045654
aF0.30442187190055847
abag1
(g2
g3
Ntp1063
Rp1064
(lp1065
F-1.0898659229278564
aF2.330418586730957
aF0.3044031858444214
abag1
(g2
g3
Ntp1066
Rp1067
(lp1068
F-1.060971736907959
aF2.2969937324523926
aF0.3043956160545349
abag1
(g2
g3
Ntp1069
Rp1070
(lp1071
F-1.0287830829620361
aF2.2552618980407715
aF0.30439087748527527
abag1
(g2
g3
Ntp1072
Rp1073
(lp1074
F-0.9988886117935181
aF2.221280574798584
aF0.3043825626373291
abag1
(g2
g3
Ntp1075
Rp1076
(lp1077
F-0.980211615562439
aF2.2194743156433105
aF0.3043615221977234
abag1
(g2
g3
Ntp1078
Rp1079
(lp1080
F-1.9008749723434448
aF4.942260265350342
aF0.3032516539096832
abag1
(g2
g3
Ntp1081
Rp1082
(lp1083
F-1.8971726894378662
aF4.944936275482178
aF0.30324503779411316
abag1
(g2
g3
Ntp1084
Rp1085
(lp1086
F-1.8926860094070435
aF4.945793628692627
aF0.3032389283180237
abag1
(g2
g3
Ntp1087
Rp1088
(lp1089
F-1.8886030912399292
aF4.947586536407471
aF0.3032325506210327
abag1
(g2
g3
Ntp1090
Rp1091
(lp1092
F-2.0053489208221436
aF5.290411472320557
aF0.3030937910079956
abag1
(g2
g3
Ntp1093
Rp1094
(lp1095
F-2.0059287548065186
aF5.297955513000488
aF0.30308833718299866
abag1
(g2
g3
Ntp1096
Rp1097
(lp1098
F-2.0056581497192383
aF5.303703308105469
aF0.3030833303928375
abag1
(g2
g3
Ntp1099
Rp1100
(lp1101
F-2.003135919570923
aF5.304999828338623
aF0.3030792474746704
abag1
(g2
g3
Ntp1102
Rp1103
(lp1104
F-2.00571346282959
aF5.316057205200195
aF0.30307334661483765
abag1
(g2
g3
Ntp1105
Rp1106
(lp1107
F-2.004179000854492
aF5.319122314453125
aF0.30306899547576904
abag1
(g2
g3
Ntp1108
Rp1109
(lp1110
F-2.0017240047454834
aF5.320425510406494
aF0.3030649721622467
abag1
(g2
g3
Ntp1111
Rp1112
(lp1113
F-1.9992748498916626
aF5.321739673614502
aF0.30306094884872437
abag1
(g2
g3
Ntp1114
Rp1115
(lp1116
F-1.9968314170837402
aF5.32306432723999
aF0.303056925535202
abag1
(g2
g3
Ntp1117
Rp1118
(lp1119
F-1.9886058568954468
aF5.313887596130371
aF0.3030545115470886
abag1
(g2
g3
Ntp1120
Rp1121
(lp1122
F-1.9861282110214233
aF5.315258979797363
aF0.3030503988265991
abag1
(g2
g3
Ntp1123
Rp1124
(lp1125
F-1.9836565256118774
aF5.316640853881836
aF0.3030462861061096
abag1
(g2
g3
Ntp1126
Rp1127
(lp1128
F-1.9767472743988037
aF5.310207366943359
aF0.3030432164669037
abag1
(g2
g3
Ntp1129
Rp1130
(lp1131
F-0.821029007434845
aF3.54368257522583
aF0.3030906915664673
abag1
(g2
g3
Ntp1132
Rp1133
(lp1134
F-0.8339975476264954
aF3.586395740509033
aF0.3030714988708496
abag1
(g2
g3
Ntp1135
Rp1136
(lp1137
F-0.8299580216407776
aF3.6020636558532715
aF0.3030538558959961
abag1
(g2
g3
Ntp1138
Rp1139
(lp1140
F-0.816200852394104
aF3.6026418209075928
aF0.30303680896759033
abag1
(g2
g3
Ntp1141
Rp1142
(lp1143
F-0.8101145625114441
aF3.614993095397949
aF0.3030194342136383
abag1
(g2
g3
Ntp1144
Rp1145
(lp1146
F-0.8002353310585022
aF3.6215224266052246
aF0.3030022084712982
abag1
(g2
g3
Ntp1147
Rp1148
(lp1149
F-0.7898278832435608
aF3.6272644996643066
aF0.30298498272895813
abag1
(g2
g3
Ntp1150
Rp1151
(lp1152
F-0.7800024747848511
aF3.633882522583008
aF0.30296775698661804
abag1
(g2
g3
Ntp1153
Rp1154
(lp1155
F-0.7702059745788574
aF3.640543222427368
aF0.30295053124427795
abag1
(g2
g3
Ntp1156
Rp1157
(lp1158
F-0.7530589699745178
aF3.6365442276000977
aF0.30293312668800354
abag1
(g2
g3
Ntp1159
Rp1160
(lp1161
F-0.740418016910553
aF3.63921856880188
aF0.3029157221317291
abag1
(g2
g3
Ntp1162
Rp1163
(lp1164
F-0.7306452393531799
aF3.6460518836975098
aF0.3028984069824219
abag1
(g2
g3
Ntp1165
Rp1166
(lp1167
F-0.7209022045135498
aF3.652927875518799
aF0.30288106203079224
abag1
(g2
g3
Ntp1168
Rp1169
(lp1170
F-0.7193365097045898
aF3.671231508255005
aF0.3028642535209656
abag1
(g2
g3
Ntp1171
Rp1172
(lp1173
F-0.7143875360488892
aF3.6846423149108887
aF0.30284735560417175
abag1
(g2
g3
Ntp1174
Rp1175
(lp1176
F-0.7089362740516663
aF3.6972455978393555
aF0.3028305172920227
abag1
(g2
g3
Ntp1177
Rp1178
(lp1179
F-0.6994168162345886
aF3.7042157649993896
aF0.3028133809566498
abag1
(g2
g3
Ntp1180
Rp1181
(lp1182
F-0.7179420590400696
aF3.7489662170410156
aF0.3027992248535156
abag1
(g2
g3
Ntp1183
Rp1184
(lp1185
F-0.7314308285713196
aF3.7863097190856934
aF0.3027850389480591
abag1
(g2
g3
Ntp1186
Rp1187
(lp1188
F-0.7470239996910095
aF3.8258872032165527
aF0.30277156829833984
abag1
(g2
g3
Ntp1189
Rp1190
(lp1191
F-0.7514087557792664
aF3.850181818008423
aF0.30275705456733704
abag1
(g2
g3
Ntp1192
Rp1193
(lp1194
F-0.757805585861206
aF3.8767762184143066
aF0.3027430772781372
abag1
(g2
g3
Ntp1195
Rp1196
(lp1197
F-0.7502958178520203
aF3.885110855102539
aF0.30272725224494934
abag1
(g2
g3
Ntp1198
Rp1199
(lp1200
F-0.7415957450866699
aF3.8918988704681396
aF0.30271124839782715
abag1
(g2
g3
Ntp1201
Rp1202
(lp1203
F-0.7397487163543701
aF3.907352924346924
aF0.30269643664360046
abag1
(g2
g3
Ntp1204
Rp1205
(lp1206
F-0.7342641949653625
aF3.9180948734283447
aF0.3026810586452484
abag1
(g2
g3
Ntp1207
Rp1208
(lp1209
F-0.7269625067710876
aF3.9265103340148926
aF0.3026654124259949
abag1
(g2
g3
Ntp1210
Rp1211
(lp1212
F-0.7228568196296692
aF3.938833236694336
aF0.30265042185783386
abag1
(g2
g3
Ntp1213
Rp1214
(lp1215
F-0.7150252461433411
aF3.9465136528015137
aF0.30263474583625793
abag1
(g2
g3
Ntp1216
Rp1217
(lp1218
F-1.5232945680618286
aF5.126487731933594
aF0.3026467263698578
abag1
(g2
g3
Ntp1219
Rp1220
(lp1221
F-1.5200037956237793
aF5.129891395568848
aF0.30263999104499817
abag1
(g2
g3
Ntp1222
Rp1223
(lp1224
F-1.5167276859283447
aF5.1333088874816895
aF0.30263325572013855
abag1
(g2
g3
Ntp1225
Rp1226
(lp1227
F-1.5940312147140503
aF5.350876808166504
aF0.3025490939617157
abag1
(g2
g3
Ntp1228
Rp1229
(lp1230
F-1.5871343612670898
aF5.360184669494629
aF0.30253317952156067
abag1
(g2
g3
Ntp1231
Rp1232
(lp1233
F-0.04207921773195267
aF4.433866500854492
aF0.3014270067214966
abag1
(g2
g3
Ntp1234
Rp1235
(lp1236
F-0.021428775042295456
aF4.434627056121826
aF0.3014015257358551
abag1
(g2
g3
Ntp1237
Rp1238
(lp1239
F0.017881618812680244
aF4.423829555511475
aF0.3013629615306854
abag1
(g2
g3
Ntp1240
Rp1241
(lp1242
F0.04714277759194374
aF4.41969108581543
aF0.301331102848053
abag1
(g2
g3
Ntp1243
Rp1244
(lp1245
F0.0535026490688324
aF4.429953575134277
aF0.3013150691986084
abag1
(g2
g3
Ntp1246
Rp1247
(lp1248
F0.05981781333684921
aF4.440243244171143
aF0.3012990951538086
abag1
(g2
g3
Ntp1249
Rp1250
(lp1251
F0.06523218005895615
aF4.451078414916992
aF0.30128371715545654
abag1
(g2
g3
Ntp1252
Rp1253
(lp1254
F0.07145502418279648
aF4.461419105529785
aF0.3012678027153015
abag1
(g2
g3
Ntp1255
Rp1256
(lp1257
F0.07763265073299408
aF4.471787452697754
aF0.30125191807746887
abag1
(g2
g3
Ntp1258
Rp1259
(lp1260
F-0.20824170112609863
aF4.773411273956299
aF0.301350474357605
abag1
(g2
g3
Ntp1261
Rp1262
(lp1263
F-0.25833582878112793
aF4.811340808868408
aF0.30137988924980164
abag1
(g2
g3
Ntp1264
Rp1265
(lp1266
F-0.25989583134651184
aF4.823489189147949
aF0.30137187242507935
abag1
(g2
g3
Ntp1267
Rp1268
(lp1269
F-0.26241254806518555
aF4.836060523986816
aF0.3013646602630615
abag1
(g2
g3
Ntp1270
Rp1271
(lp1272
F-0.2596499025821686
aF4.8458733558654785
aF0.3013533353805542
abag1
(g2
g3
Ntp1273
Rp1274
(lp1275
F-0.25872132182121277
aF4.856587886810303
aF0.30134350061416626
abag1
(g2
g3
Ntp1276
Rp1277
(lp1278
F-0.2542647421360016
aF4.865511417388916
aF0.3013308346271515
abag1
(g2
g3
Ntp1279
Rp1280
(lp1281
F-0.2498471885919571
aF4.874454498291016
aF0.3013182282447815
abag1
(g2
g3
Ntp1282
Rp1283
(lp1284
F-0.24546878039836884
aF4.883416652679443
aF0.3013056516647339
abag1
(g2
g3
Ntp1285
Rp1286
(lp1287
F-0.24112939834594727
aF4.892397880554199
aF0.30129310488700867
abag1
(g2
g3
Ntp1288
Rp1289
(lp1290
F-0.22328056395053864
aF4.894960880279541
aF0.30126953125
abag1
(g2
g3
Ntp1291
Rp1292
(lp1293
F-0.21899189054965973
aF4.904038906097412
aF0.3012569546699524
abag1
(g2
g3
Ntp1294
Rp1295
(lp1296
F-0.2138359248638153
aF4.912714004516602
aF0.30124369263648987
abag1
(g2
g3
Ntp1297
Rp1298
(lp1299
F-0.20598956942558289
aF4.920163631439209
aF0.3012281656265259
abag1
(g2
g3
Ntp1300
Rp1301
(lp1302
F-0.20181110501289368
aF4.929316997528076
aF0.30121567845344543
abag1
(g2
g3
Ntp1303
Rp1304
(lp1305
F-0.15843996405601501
aF4.920886993408203
aF0.301170289516449
abag1
(g2
g3
Ntp1306
Rp1307
(lp1308
F-0.154264897108078
aF4.930247783660889
aF0.3011576533317566
abag1
(g2
g3
Ntp1309
Rp1310
(lp1311
F-0.11532556265592575
aF4.924374580383301
aF0.3011155128479004
abag1
(g2
g3
Ntp1312
Rp1313
(lp1314
F-0.101932592689991
aF4.997559070587158
aF0.30103975534439087
abag1
(g2
g3
Ntp1315
Rp1316
(lp1317
F-0.10459822416305542
aF5.009749889373779
aF0.30103302001953125
abag1
(g2
g3
Ntp1318
Rp1319
(lp1320
F-0.1091902107000351
aF5.022629737854004
aF0.3010280728340149
abag1
(g2
g3
Ntp1321
Rp1322
(lp1323
F-0.11012255400419235
aF5.03400993347168
aF0.30101990699768066
abag1
(g2
g3
Ntp1324
Rp1325
(lp1326
F-0.11671693623065948
aF5.047506332397461
aF0.3010168671607971
abag1
(g2
g3
Ntp1327
Rp1328
(lp1329
F-0.11309479922056198
aF5.0570478439331055
aF0.30100470781326294
abag1
(g2
g3
Ntp1330
Rp1331
(lp1332
F-0.09920523315668106
aF5.062768459320068
aF0.30098333954811096
abag1
(g2
g3
Ntp1333
Rp1334
(lp1335
F-0.10315937548875809
aF5.075143337249756
aF0.30097800493240356
abag1
(g2
g3
Ntp1336
Rp1337
(lp1338
F-0.09965801239013672
aF5.084743976593018
aF0.30096596479415894
abag1
(g2
g3
Ntp1339
Rp1340
(lp1341
F-0.08489818871021271
aF5.0903215408325195
aF0.30094364285469055
abag1
(g2
g3
Ntp1342
Rp1343
(lp1344
F-0.08146322518587112
aF5.100001335144043
aF0.3009316325187683
abag1
(g2
g3
Ntp1345
Rp1346
(lp1347
F-0.03934239596128464
aF5.096237659454346
aF0.300883948802948
abag1
(g2
g3
Ntp1348
Rp1349
(lp1350
F-0.005661100149154663
aF5.0957441329956055
aF0.3008437752723694
abag1
(g2
g3
Ntp1351
Rp1352
(lp1353
F3.73132061958313
aF4.331961631774902
aF0.29696494340896606
abag1
(g2
g3
Ntp1354
Rp1355
(lp1356
F3.738028049468994
aF4.35830020904541
aF0.29693540930747986
abag1
(g2
g3
Ntp1357
Rp1358
(lp1359
F2.2562687397003174
aF4.879212856292725
aF0.2982957065105438
abag1
(g2
g3
Ntp1360
Rp1361
(lp1362
F2.231276512145996
aF4.905430793762207
aF0.2983044385910034
abag1
(g2
g3
Ntp1363
Rp1364
(lp1365
F2.2354960441589355
aF4.92521858215332
aF0.29828324913978577
abag1
(g2
g3
Ntp1366
Rp1367
(lp1368
F2.2396295070648193
aF4.945024490356445
aF0.2982621192932129
abag1
(g2
g3
Ntp1369
Rp1370
(lp1371
F2.212308883666992
aF4.971180438995361
aF0.2982737123966217
abag1
(g2
g3
Ntp1372
Rp1373
(lp1374
F2.1946582794189453
aF4.995143890380859
aF0.2982754409313202
abag1
(g2
g3
Ntp1375
Rp1376
(lp1377
F2.159210205078125
aF5.02234411239624
aF0.2982959747314453
abag1
(g2
g3
Ntp1378
Rp1379
(lp1380
F2.14326548576355
aF5.0455169677734375
aF0.2982963025569916
abag1
(g2
g3
Ntp1381
Rp1382
(lp1383
F2.126220703125
aF5.0687150955200195
aF0.2982979416847229
abag1
(g2
g3
Ntp1384
Rp1385
(lp1386
F2.1189017295837402
aF5.0899834632873535
aF0.29828941822052
abag1
(g2
g3
Ntp1387
Rp1388
(lp1389
F2.065183162689209
aF5.119264125823975
aF0.29833024740219116
abag1
(g2
g3
Ntp1390
Rp1391
(lp1392
F2.0576274394989014
aF5.140171527862549
aF0.29832231998443604
abag1
(g2
g3
Ntp1393
Rp1394
(lp1395
F2.027282238006592
aF5.164760112762451
aF0.2983388304710388
abag1
(g2
g3
Ntp1396
Rp1397
(lp1398
F1.9958192110061646
aF5.189228534698486
aF0.2983568012714386
abag1
(g2
g3
Ntp1399
Rp1400
(lp1401
F1.9820078611373901
aF5.210620403289795
aF0.29835599660873413
abag1
(g2
g3
Ntp1402
Rp1403
(lp1404
F1.9364573955535889
aF5.236697673797607
aF0.29838961362838745
abag1
(g2
g3
Ntp1405
Rp1406
(lp1407
F1.9313201904296875
aF5.25636625289917
aF0.2983797788619995
abag1
(g2
g3
Ntp1408
Rp1409
(lp1410
F1.9152045249938965
aF5.2775397300720215
aF0.2983819246292114
abag1
(g2
g3
Ntp1411
Rp1412
(lp1413
F1.9178035259246826
aF5.295945167541504
aF0.2983638048171997
abag1
(g2
g3
Ntp1414
Rp1415
(lp1416
F1.8915810585021973
aF5.318228244781494
aF0.29837721586227417
abag1
(g2
g3
Ntp1417
Rp1418
(lp1419
F1.8622702360153198
aF5.340658664703369
aF0.29839426279067993
abag1
(g2
g3
Ntp1420
Rp1421
(lp1422
F1.8288755416870117
aF5.363320827484131
aF0.29841601848602295
abag1
(g2
g3
Ntp1423
Rp1424
(lp1425
F1.8122392892837524
aF5.383635520935059
aF0.2984195053577423
abag1
(g2
g3
Ntp1426
Rp1427
(lp1428
F1.7945114374160767
aF5.4039106369018555
aF0.2984243333339691
abag1
(g2
g3
Ntp1429
Rp1430
(lp1431
F1.7587980031967163
aF5.426032543182373
aF0.29844930768013
abag1
(g2
g3
Ntp1432
Rp1433
(lp1434
F1.756773591041565
aF5.444183349609375
aF0.2984369695186615
abag1
(g2
g3
Ntp1435
Rp1436
(lp1437
F1.7317907810211182
aF5.464676856994629
aF0.2984503507614136
abag1
(g2
g3
Ntp1438
Rp1439
(lp1440
F1.7027267217636108
aF5.485339164733887
aF0.29846853017807007
abag1
(g2
g3
Ntp1441
Rp1442
(lp1443
F1.6735591888427734
aF5.505739212036133
aF0.2984870374202728
abag1
(g2
g3
Ntp1444
Rp1445
(lp1446
F1.6701850891113281
aF5.523537635803223
aF0.29847660660743713
abag1
(g2
g3
Ntp1447
Rp1448
(lp1449
F1.6766948699951172
aF5.540443420410156
aF0.29845497012138367
abag1
(g2
g3
Ntp1450
Rp1451
(lp1452
F1.6781491041183472
aF5.557805061340332
aF0.298439085483551
abag1
(g2
g3
Ntp1453
Rp1454
(lp1455
F1.689497470855713
aF5.574403762817383
aF0.29841187596321106
abag1
(g2
g3
Ntp1456
Rp1457
(lp1458
F1.713742971420288
aF5.590151786804199
aF0.2983698546886444
abag1
(g2
g3
Ntp1459
Rp1460
(lp1461
F1.7409193515777588
aF5.605900764465332
aF0.2983242869377136
abag1
(g2
g3
Ntp1462
Rp1463
(lp1464
F1.7420873641967773
aF5.623541831970215
aF0.29830849170684814
abag1
(g2
g3
Ntp1465
Rp1466
(lp1467
F1.7511639595031738
aF5.640712261199951
aF0.29828357696533203
abag1
(g2
g3
Ntp1468
Rp1469
(lp1470
F1.7881253957748413
aF5.656412124633789
aF0.2982262670993805
abag1
(g2
g3
Ntp1471
Rp1472
(lp1473
F1.807049036026001
aF5.673344135284424
aF0.2981896698474884
abag1
(g2
g3
Ntp1474
Rp1475
(lp1476
F1.8189103603363037
aF5.690762519836426
aF0.29816117882728577
abag1
(g2
g3
Ntp1477
Rp1478
(lp1479
F1.8356927633285522
aF5.708070278167725
aF0.29812687635421753
abag1
(g2
g3
Ntp1480
Rp1481
(lp1482
F1.8484055995941162
aF5.725671291351318
aF0.2980971932411194
abag1
(g2
g3
Ntp1483
Rp1484
(lp1485
F1.8590446710586548
aF5.7434468269348145
aF0.29806989431381226
abag1
(g2
g3
Ntp1486
Rp1487
(lp1488
F1.8596113920211792
aF5.761602401733398
aF0.29805442690849304
abag1
(g2
g3
Ntp1489
Rp1490
(lp1491
F1.9100834131240845
aF5.778527736663818
aF0.29797983169555664
abag1
(g2
g3
Ntp1492
Rp1493
(lp1494
F1.9184952974319458
aF5.796743392944336
aF0.29795485734939575
abag1
(g2
g3
Ntp1495
Rp1496
(lp1497
F1.9378260374069214
aF5.814855098724365
aF0.29791682958602905
abag1
(g2
g3
Ntp1498
Rp1499
(lp1500
F1.9490797519683838
aF5.833226680755615
aF0.29788830876350403
abag1
(g2
g3
Ntp1501
Rp1502
(lp1503
F1.966253638267517
aF5.851651668548584
aF0.29785260558128357
abag1
(g2
g3
Ntp1504
Rp1505
(lp1506
F1.989346981048584
aF5.870208740234375
aF0.2978096604347229
abag1
(g2
g3
Ntp1507
Rp1508
(lp1509
F1.9893591403961182
aF5.888931751251221
aF0.297794371843338
abag1
(g2
g3
Ntp1510
Rp1511
(lp1512
F1.9892899990081787
aF5.907654762268066
aF0.2977792024612427
abag1
(g2
g3
Ntp1513
Rp1514
(lp1515
F1.151367425918579
aF6.235410690307617
aF0.29852139949798584
abag1
(g2
g3
Ntp1516
Rp1517
(lp1518
F1.149794340133667
aF6.250473976135254
aF0.2985110282897949
abag1
(g2
g3
Ntp1519
Rp1520
(lp1521
F1.1481554508209229
aF6.265530109405518
aF0.29850074648857117
abag1
(g2
g3
Ntp1522
Rp1523
(lp1524
F1.1464509963989258
aF6.280579090118408
aF0.2984905242919922
abag1
(g2
g3
Ntp1525
Rp1526
(lp1527
F1.1446807384490967
aF6.295619964599609
aF0.29848039150238037
abag1
(g2
g3
Ntp1528
Rp1529
(lp1530
F1.3230234384536743
aF6.49463415145874
aF0.298103392124176
abag1
(g2
g3
Ntp1531
Rp1532
(lp1533
F1.3075088262557983
aF6.508223056793213
aF0.2981110215187073
abag1
(g2
g3
Ntp1534
Rp1535
(lp1536
F1.3175427913665771
aF6.526241779327393
aF0.2980842590332031
abag1
(g2
g3
Ntp1537
Rp1538
(lp1539
F1.3146991729736328
aF6.542026996612549
aF0.2980748116970062
abag1
(g2
g3
Ntp1540
Rp1541
(lp1542
F6.680395126342773
aF8.01181411743164
aF0.290414035320282
abag1
(g2
g3
Ntp1543
Rp1544
(lp1545
F6.750723838806152
aF8.070249557495117
aF0.2902817130088806
abag1
(g2
g3
Ntp1546
Rp1547
(lp1548
F0.6165788173675537
aF6.737805366516113
aF0.2987561523914337
abag1
(g2
g3
Ntp1549
Rp1550
(lp1551
F0.6128186583518982
aF6.750530242919922
aF0.2987503111362457
abag1
(g2
g3
Ntp1552
Rp1553
(lp1554
F0.609002947807312
aF6.763238430023193
aF0.2987445592880249
abag1
(g2
g3
Ntp1555
Rp1556
(lp1557
F0.5393582582473755
aF6.92133903503418
aF0.29869961738586426
abag1
(g2
g3
Ntp1558
Rp1559
(lp1560
F0.5255157351493835
aF6.958437442779541
aF0.29868605732917786
abag1
(g2
g3
Ntp1561
Rp1562
(lp1563
F0.42710015177726746
aF7.102293491363525
aF0.2986873686313629
abag1
(g2
g3
Ntp1564
Rp1565
(lp1566
F0.421751469373703
aF7.114188194274902
aF0.29868412017822266
abag1
(g2
g3
Ntp1567
Rp1568
(lp1569
F0.4163508415222168
aF7.126059532165527
aF0.29868096113204956
abag1
(g2
g3
Ntp1570
Rp1571
(lp1572
F0.21978558599948883
aF7.227992057800293
aF0.2988346517086029
abag1
(g2
g3
Ntp1573
Rp1574
(lp1575
F0.21389047801494598
aF7.238981246948242
aF0.29883280396461487
abag1
(g2
g3
Ntp1576
Rp1577
(lp1578
F0.20706923305988312
aF7.2494659423828125
aF0.2988324761390686
abag1
(g2
g3
Ntp1579
Rp1580
(lp1581
F0.20108044147491455
aF7.260398864746094
aF0.2988307774066925
abag1
(g2
g3
Ntp1582
Rp1583
(lp1584
F0.1845574676990509
aF7.265472412109375
aF0.2988465428352356
abag1
(g2
g3
Ntp1585
Rp1586
(lp1587
F0.1784989833831787
aF7.276307106018066
aF0.2988450229167938
abag1
(g2
g3
Ntp1588
Rp1589
(lp1590
F0.1875491440296173
aF7.428000450134277
aF0.29871049523353577
abag1
(g2
g3
Ntp1591
Rp1592
(lp1593
F0.18078145384788513
aF7.438846588134766
aF0.29870980978012085
abag1
(g2
g3
Ntp1594
Rp1595
(lp1596
F0.17396660149097443
aF7.4496636390686035
aF0.2987092137336731
abag1
(g2
g3
Ntp1597
Rp1598
(lp1599
F-0.31778040528297424
aF7.465367317199707
aF0.29928871989250183
abag1
(g2
g3
Ntp1600
Rp1601
(lp1602
F-0.32470616698265076
aF7.474008560180664
aF0.2992900311946869
abag1
(g2
g3
Ntp1603
Rp1604
(lp1605
F-0.3316696584224701
aF7.482619285583496
aF0.2992914021015167
abag1
(g2
g3
Ntp1606
Rp1607
(lp1608
F-0.9239293932914734
aF7.205293655395508
aF0.3002307713031769
abag1
(g2
g3
Ntp1609
Rp1610
(lp1611
F-0.9297146797180176
aF7.211292266845703
aF0.300232857465744
abag1
(g2
g3
Ntp1612
Rp1613
(lp1614
F-0.9355261325836182
aF7.217265605926514
aF0.30023497343063354
abag1
(g2
g3
Ntp1615
Rp1616
(lp1617
F-0.6141366958618164
aF7.745883464813232
aF0.29941707849502563
abag1
(g2
g3
Ntp1618
Rp1619
(lp1620
F-0.6222837567329407
aF7.753228664398193
aF0.29942092299461365
abag1
(g2
g3
Ntp1621
Rp1622
(lp1623
F-0.6304627656936646
aF7.760538101196289
aF0.29942479729652405
abag1
(g2
g3
Ntp1624
Rp1625
(lp1626
F-0.997131884098053
aF7.619028568267822
aF0.2999817728996277
abag1
(g2
g3
Ntp1627
Rp1628
(lp1629
F-1.0047216415405273
aF7.624704360961914
aF0.2999863028526306
abag1
(g2
g3
Ntp1630
Rp1631
(lp1632
F-1.012336254119873
aF7.630346298217773
aF0.29999086260795593
abag1
(g2
g3
Ntp1633
Rp1634
(lp1635
F-0.9942516684532166
aF8.324464797973633
aF0.29940345883369446
abag1
(g2
g3
Ntp1636
Rp1637
(lp1638
F-1.0049196481704712
aF8.330145835876465
aF0.29941168427467346
abag1
(g2
g3
Ntp1639
Rp1640
(lp1641
F-1.3015811443328857
aF8.011208534240723
aF0.300028920173645
abag1
(g2
g3
Ntp1642
Rp1643
(lp1644
F-1.3125642538070679
aF8.011923789978027
aF0.3000415563583374
abag1
(g2
g3
Ntp1645
Rp1646
(lp1647
F-1.3218653202056885
aF8.016219139099121
aF0.3000492453575134
abag1
(g2
g3
Ntp1648
Rp1649
(lp1650
F-1.3295320272445679
aF8.024116516113281
aF0.30005204677581787
abag1
(g2
g3
Ntp1651
Rp1652
(lp1653
F-1.246854305267334
aF8.642744064331055
aF0.2994483411312103
abag1
(g2
g3
Ntp1654
Rp1655
(lp1656
F-1.2589085102081299
aF8.647319793701172
aF0.2994591295719147
abag1
(g2
g3
Ntp1657
Rp1658
(lp1659
F-1.2755168676376343
aF8.639659881591797
aF0.29948538541793823
abag1
(g2
g3
Ntp1660
Rp1661
(lp1662
F-1.283076286315918
aF8.6563138961792
aF0.2994809150695801
abag1
(g2
g3
Ntp1663
Rp1664
(lp1665
F-1.3047258853912354
aF8.634406089782715
aF0.29952484369277954
abag1
(g2
g3
Ntp1666
Rp1667
(lp1668
F-1.31674325466156
aF8.6387300491333
aF0.2995358109474182
abag1
(g2
g3
Ntp1669
Rp1670
(lp1671
F-1.3307735919952393
aF8.637341499328613
aF0.29955384135246277
abag1
(g2
g3
Ntp1672
Rp1673
(lp1674
F-1.3408337831497192
aF8.64721965789795
aF0.2995578944683075
abag1
(g2
g3
Ntp1675
Rp1676
(lp1677
F-1.5255131721496582
aF8.957990646362305
aF0.299527108669281
abag1
(g2
g3
Ntp1678
Rp1679
(lp1680
F-1.5389400720596313
aF8.961347579956055
aF0.29954054951667786
abag1
(g2
g3
Ntp1681
Rp1682
(lp1683
F-1.5523818731307983
aF8.964646339416504
aF0.2995540499687195
aba.